
kernel.elf:     formato de ficheiro elf64-x86-64


Desmontagem da secção .text:

ffffffff80200000 <_start>:
ffffffff80200000:	41 57                	push   %r15
ffffffff80200002:	41 56                	push   %r14
ffffffff80200004:	41 55                	push   %r13
ffffffff80200006:	41 54                	push   %r12
ffffffff80200008:	55                   	push   %rbp
ffffffff80200009:	53                   	push   %rbx
ffffffff8020000a:	48 81 ec 08 02 00 00 	sub    $0x208,%rsp
ffffffff80200011:	e8 8a 2e 00 00       	call   ffffffff80202ea0 <serial_init>
ffffffff80200016:	48 c7 c7 5c 49 20 80 	mov    $0xffffffff8020495c,%rdi
ffffffff8020001d:	e8 fe 2e 00 00       	call   ffffffff80202f20 <serial_print>
ffffffff80200022:	e8 89 06 00 00       	call   ffffffff802006b0 <vga_init>
ffffffff80200027:	48 c7 c7 f8 4b 20 80 	mov    $0xffffffff80204bf8,%rdi
ffffffff8020002e:	e8 ed 09 00 00       	call   ffffffff80200a20 <vga_print>
ffffffff80200033:	48 c7 c7 75 49 20 80 	mov    $0xffffffff80204975,%rdi
ffffffff8020003a:	e8 e1 2e 00 00       	call   ffffffff80202f20 <serial_print>
ffffffff8020003f:	e8 3c 0b 00 00       	call   ffffffff80200b80 <gdt_init>
ffffffff80200044:	48 c7 c7 8b 49 20 80 	mov    $0xffffffff8020498b,%rdi
ffffffff8020004b:	e8 d0 2e 00 00       	call   ffffffff80202f20 <serial_print>
ffffffff80200050:	e8 7b 0d 00 00       	call   ffffffff80200dd0 <idt_init>
ffffffff80200055:	48 c7 c7 a1 49 20 80 	mov    $0xffffffff802049a1,%rdi
ffffffff8020005c:	e8 bf 2e 00 00       	call   ffffffff80202f20 <serial_print>
ffffffff80200061:	0f 20 c0             	mov    %cr0,%rax
ffffffff80200064:	48 83 e0 fb          	and    $0xfffffffffffffffb,%rax
ffffffff80200068:	48 83 c8 02          	or     $0x2,%rax
ffffffff8020006c:	0f 22 c0             	mov    %rax,%cr0
ffffffff8020006f:	0f 20 e0             	mov    %cr4,%rax
ffffffff80200072:	80 cc 06             	or     $0x6,%ah
ffffffff80200075:	0f 22 e0             	mov    %rax,%cr4
ffffffff80200078:	48 c7 c7 b7 49 20 80 	mov    $0xffffffff802049b7,%rdi
ffffffff8020007f:	49 89 e5             	mov    %rsp,%r13
ffffffff80200082:	4c 8d 7c 24 20       	lea    0x20(%rsp),%r15
ffffffff80200087:	45 31 f6             	xor    %r14d,%r14d
ffffffff8020008a:	e8 91 2e 00 00       	call   ffffffff80202f20 <serial_print>
ffffffff8020008f:	4c 8d a4 24 00 01 00 	lea    0x100(%rsp),%r12
ffffffff80200096:	00 
ffffffff80200097:	e8 64 30 00 00       	call   ffffffff80203100 <syscall_init>
ffffffff8020009c:	48 c7 c7 cd 49 20 80 	mov    $0xffffffff802049cd,%rdi
ffffffff802000a3:	e8 78 2e 00 00       	call   ffffffff80202f20 <serial_print>
ffffffff802000a8:	e8 a3 0e 00 00       	call   ffffffff80200f50 <pic_remap>
ffffffff802000ad:	48 c7 c7 e7 49 20 80 	mov    $0xffffffff802049e7,%rdi
ffffffff802000b4:	e8 67 2e 00 00       	call   ffffffff80202f20 <serial_print>
ffffffff802000b9:	e8 82 10 00 00       	call   ffffffff80201140 <pmm_init>
ffffffff802000be:	48 c7 c7 fe 49 20 80 	mov    $0xffffffff802049fe,%rdi
ffffffff802000c5:	e8 56 2e 00 00       	call   ffffffff80202f20 <serial_print>
ffffffff802000ca:	e8 31 16 00 00       	call   ffffffff80201700 <vmm_init>
ffffffff802000cf:	48 c7 c7 14 4a 20 80 	mov    $0xffffffff80204a14,%rdi
ffffffff802000d6:	e8 45 2e 00 00       	call   ffffffff80202f20 <serial_print>
ffffffff802000db:	e8 00 1a 00 00       	call   ffffffff80201ae0 <heap_init>
ffffffff802000e0:	48 c7 c7 2a 4a 20 80 	mov    $0xffffffff80204a2a,%rdi
ffffffff802000e7:	e8 34 2e 00 00       	call   ffffffff80202f20 <serial_print>
ffffffff802000ec:	e8 4f 1b 00 00       	call   ffffffff80201c40 <tarfs_init>
ffffffff802000f1:	48 c7 c7 41 4a 20 80 	mov    $0xffffffff80204a41,%rdi
ffffffff802000f8:	e8 23 2e 00 00       	call   ffffffff80202f20 <serial_print>
ffffffff802000fd:	e8 ae 20 00 00       	call   ffffffff802021b0 <fat16_init>
ffffffff80200102:	48 c7 c7 59 4a 20 80 	mov    $0xffffffff80204a59,%rdi
ffffffff80200109:	e8 12 2e 00 00       	call   ffffffff80202f20 <serial_print>
ffffffff8020010e:	e8 ed 2b 00 00       	call   ffffffff80202d00 <pci_init>
ffffffff80200113:	48 c7 c7 71 4a 20 80 	mov    $0xffffffff80204a71,%rdi
ffffffff8020011a:	e8 01 2e 00 00       	call   ffffffff80202f20 <serial_print>
ffffffff8020011f:	e8 bc 29 00 00       	call   ffffffff80202ae0 <acpi_init>
ffffffff80200124:	48 c7 c7 87 4a 20 80 	mov    $0xffffffff80204a87,%rdi
ffffffff8020012b:	e8 f0 2d 00 00       	call   ffffffff80202f20 <serial_print>
ffffffff80200130:	48 c7 c7 28 4c 20 80 	mov    $0xffffffff80204c28,%rdi
ffffffff80200137:	e8 e4 08 00 00       	call   ffffffff80200a20 <vga_print>
ffffffff8020013c:	0f 1f 40 00          	nopl   0x0(%rax)
ffffffff80200140:	48 c7 c7 9e 4a 20 80 	mov    $0xffffffff80204a9e,%rdi
ffffffff80200147:	31 ed                	xor    %ebp,%ebp
ffffffff80200149:	e8 d2 08 00 00       	call   ffffffff80200a20 <vga_print>
ffffffff8020014e:	66 90                	xchg   %ax,%ax
ffffffff80200150:	e8 7b 0f 00 00       	call   ffffffff802010d0 <keyboard_getchar>
ffffffff80200155:	89 c3                	mov    %eax,%ebx
ffffffff80200157:	3c 0a                	cmp    $0xa,%al
ffffffff80200159:	74 24                	je     ffffffff8020017f <_start+0x17f>
ffffffff8020015b:	3c 08                	cmp    $0x8,%al
ffffffff8020015d:	0f 85 c0 01 00 00    	jne    ffffffff80200323 <_start+0x323>
ffffffff80200163:	85 ed                	test   %ebp,%ebp
ffffffff80200165:	7e e9                	jle    ffffffff80200150 <_start+0x150>
ffffffff80200167:	bf 08 00 00 00       	mov    $0x8,%edi
ffffffff8020016c:	83 ed 01             	sub    $0x1,%ebp
ffffffff8020016f:	e8 6c 06 00 00       	call   ffffffff802007e0 <vga_putchar>
ffffffff80200174:	e8 57 0f 00 00       	call   ffffffff802010d0 <keyboard_getchar>
ffffffff80200179:	89 c3                	mov    %eax,%ebx
ffffffff8020017b:	3c 0a                	cmp    $0xa,%al
ffffffff8020017d:	75 dc                	jne    ffffffff8020015b <_start+0x15b>
ffffffff8020017f:	bf 0a 00 00 00       	mov    $0xa,%edi
ffffffff80200184:	e8 57 06 00 00       	call   ffffffff802007e0 <vga_putchar>
ffffffff80200189:	48 63 d5             	movslq %ebp,%rdx
ffffffff8020018c:	c6 84 14 00 01 00 00 	movb   $0x0,0x100(%rsp,%rdx,1)
ffffffff80200193:	00 
ffffffff80200194:	85 ed                	test   %ebp,%ebp
ffffffff80200196:	74 a8                	je     ffffffff80200140 <_start+0x140>
ffffffff80200198:	0f 8e a7 01 00 00    	jle    ffffffff80200345 <_start+0x345>
ffffffff8020019e:	66 90                	xchg   %ax,%ax
ffffffff802001a0:	31 c0                	xor    %eax,%eax
ffffffff802001a2:	eb 19                	jmp    ffffffff802001bd <_start+0x1bd>
ffffffff802001a4:	66 66 2e 0f 1f 84 00 	data16 cs nopw 0x0(%rax,%rax,1)
ffffffff802001ab:	00 00 00 00 
ffffffff802001af:	90                   	nop
ffffffff802001b0:	48 83 c0 01          	add    $0x1,%rax
ffffffff802001b4:	48 39 d0             	cmp    %rdx,%rax
ffffffff802001b7:	0f 84 eb 01 00 00    	je     ffffffff802003a8 <_start+0x3a8>
ffffffff802001bd:	41 80 3c 04 20       	cmpb   $0x20,(%r12,%rax,1)
ffffffff802001c2:	75 ec                	jne    ffffffff802001b0 <_start+0x1b0>
ffffffff802001c4:	be 1f 00 00 00       	mov    $0x1f,%esi
ffffffff802001c9:	44 88 34 24          	mov    %r14b,(%rsp)
ffffffff802001cd:	48 63 f8             	movslq %eax,%rdi
ffffffff802001d0:	39 f0                	cmp    %esi,%eax
ffffffff802001d2:	44 88 74 24 20       	mov    %r14b,0x20(%rsp)
ffffffff802001d7:	0f 4e f0             	cmovle %eax,%esi
ffffffff802001da:	31 d2                	xor    %edx,%edx
ffffffff802001dc:	85 c0                	test   %eax,%eax
ffffffff802001de:	74 12                	je     ffffffff802001f2 <_start+0x1f2>
ffffffff802001e0:	41 0f b6 0c 14       	movzbl (%r12,%rdx,1),%ecx
ffffffff802001e5:	41 88 4c 15 00       	mov    %cl,0x0(%r13,%rdx,1)
ffffffff802001ea:	48 83 c2 01          	add    $0x1,%rdx
ffffffff802001ee:	39 d6                	cmp    %edx,%esi
ffffffff802001f0:	7f ee                	jg     ffffffff802001e0 <_start+0x1e0>
ffffffff802001f2:	48 63 f6             	movslq %esi,%rsi
ffffffff802001f5:	8d 4f 01             	lea    0x1(%rdi),%ecx
ffffffff802001f8:	c6 04 34 00          	movb   $0x0,(%rsp,%rsi,1)
ffffffff802001fc:	4c 89 fe             	mov    %r15,%rsi
ffffffff802001ff:	48 63 d1             	movslq %ecx,%rdx
ffffffff80200202:	48 29 fe             	sub    %rdi,%rsi
ffffffff80200205:	39 cd                	cmp    %ecx,%ebp
ffffffff80200207:	0f 8e 73 03 00 00    	jle    ffffffff80200580 <_start+0x580>
ffffffff8020020d:	66 66 2e 0f 1f 84 00 	data16 cs nopw 0x0(%rax,%rax,1)
ffffffff80200214:	00 00 00 00 
ffffffff80200218:	0f 1f 84 00 00 00 00 	nopl   0x0(%rax,%rax,1)
ffffffff8020021f:	00 
ffffffff80200220:	41 0f b6 0c 14       	movzbl (%r12,%rdx,1),%ecx
ffffffff80200225:	88 4c 16 ff          	mov    %cl,-0x1(%rsi,%rdx,1)
ffffffff80200229:	48 83 c2 01          	add    $0x1,%rdx
ffffffff8020022d:	39 d5                	cmp    %edx,%ebp
ffffffff8020022f:	7f ef                	jg     ffffffff80200220 <_start+0x220>
ffffffff80200231:	83 ed 01             	sub    $0x1,%ebp
ffffffff80200234:	29 c5                	sub    %eax,%ebp
ffffffff80200236:	48 63 c5             	movslq %ebp,%rax
ffffffff80200239:	c6 44 04 20 00       	movb   $0x0,0x20(%rsp,%rax,1)
ffffffff8020023e:	0f b6 34 24          	movzbl (%rsp),%esi
ffffffff80200242:	4c 89 e9             	mov    %r13,%rcx
ffffffff80200245:	48 c7 c2 20 49 20 80 	mov    $0xffffffff80204920,%rdx
ffffffff8020024c:	89 f0                	mov    %esi,%eax
ffffffff8020024e:	40 84 f6             	test   %sil,%sil
ffffffff80200251:	75 21                	jne    ffffffff80200274 <_start+0x274>
ffffffff80200253:	e9 17 03 00 00       	jmp    ffffffff8020056f <_start+0x56f>
ffffffff80200258:	0f 1f 84 00 00 00 00 	nopl   0x0(%rax,%rax,1)
ffffffff8020025f:	00 
ffffffff80200260:	0f b6 41 01          	movzbl 0x1(%rcx),%eax
ffffffff80200264:	48 83 c1 01          	add    $0x1,%rcx
ffffffff80200268:	48 83 c2 01          	add    $0x1,%rdx
ffffffff8020026c:	84 c0                	test   %al,%al
ffffffff8020026e:	0f 84 0c 01 00 00    	je     ffffffff80200380 <_start+0x380>
ffffffff80200274:	38 02                	cmp    %al,(%rdx)
ffffffff80200276:	74 e8                	je     ffffffff80200260 <_start+0x260>
ffffffff80200278:	38 02                	cmp    %al,(%rdx)
ffffffff8020027a:	0f 84 0a 01 00 00    	je     ffffffff8020038a <_start+0x38a>
ffffffff80200280:	89 f0                	mov    %esi,%eax
ffffffff80200282:	48 c7 c2 25 49 20 80 	mov    $0xffffffff80204925,%rdx
ffffffff80200289:	4c 89 e9             	mov    %r13,%rcx
ffffffff8020028c:	eb 26                	jmp    ffffffff802002b4 <_start+0x2b4>
ffffffff8020028e:	66 66 2e 0f 1f 84 00 	data16 cs nopw 0x0(%rax,%rax,1)
ffffffff80200295:	00 00 00 00 
ffffffff80200299:	0f 1f 80 00 00 00 00 	nopl   0x0(%rax)
ffffffff802002a0:	0f b6 41 01          	movzbl 0x1(%rcx),%eax
ffffffff802002a4:	48 83 c1 01          	add    $0x1,%rcx
ffffffff802002a8:	48 83 c2 01          	add    $0x1,%rdx
ffffffff802002ac:	84 c0                	test   %al,%al
ffffffff802002ae:	0f 84 26 01 00 00    	je     ffffffff802003da <_start+0x3da>
ffffffff802002b4:	38 02                	cmp    %al,(%rdx)
ffffffff802002b6:	74 e8                	je     ffffffff802002a0 <_start+0x2a0>
ffffffff802002b8:	38 02                	cmp    %al,(%rdx)
ffffffff802002ba:	74 44                	je     ffffffff80200300 <_start+0x300>
ffffffff802002bc:	89 f0                	mov    %esi,%eax
ffffffff802002be:	48 c7 c2 29 49 20 80 	mov    $0xffffffff80204929,%rdx
ffffffff802002c5:	4c 89 e9             	mov    %r13,%rcx
ffffffff802002c8:	eb 2a                	jmp    ffffffff802002f4 <_start+0x2f4>
ffffffff802002ca:	66 66 2e 0f 1f 84 00 	data16 cs nopw 0x0(%rax,%rax,1)
ffffffff802002d1:	00 00 00 00 
ffffffff802002d5:	66 66 2e 0f 1f 84 00 	data16 cs nopw 0x0(%rax,%rax,1)
ffffffff802002dc:	00 00 00 00 
ffffffff802002e0:	0f b6 41 01          	movzbl 0x1(%rcx),%eax
ffffffff802002e4:	48 83 c1 01          	add    $0x1,%rcx
ffffffff802002e8:	48 83 c2 01          	add    $0x1,%rdx
ffffffff802002ec:	84 c0                	test   %al,%al
ffffffff802002ee:	0f 84 ed 00 00 00    	je     ffffffff802003e1 <_start+0x3e1>
ffffffff802002f4:	38 02                	cmp    %al,(%rdx)
ffffffff802002f6:	74 e8                	je     ffffffff802002e0 <_start+0x2e0>
ffffffff802002f8:	38 02                	cmp    %al,(%rdx)
ffffffff802002fa:	0f 85 eb 00 00 00    	jne    ffffffff802003eb <_start+0x3eb>
ffffffff80200300:	e8 3b 03 00 00       	call   ffffffff80200640 <vga_clear>
ffffffff80200305:	e9 36 fe ff ff       	jmp    ffffffff80200140 <_start+0x140>
ffffffff8020030a:	66 0f 1f 44 00 00    	nopw   0x0(%rax,%rax,1)
ffffffff80200310:	e8 bb 0d 00 00       	call   ffffffff802010d0 <keyboard_getchar>
ffffffff80200315:	89 c3                	mov    %eax,%ebx
ffffffff80200317:	3c 0a                	cmp    $0xa,%al
ffffffff80200319:	74 45                	je     ffffffff80200360 <_start+0x360>
ffffffff8020031b:	3c 08                	cmp    $0x8,%al
ffffffff8020031d:	0f 84 44 fe ff ff    	je     ffffffff80200167 <_start+0x167>
ffffffff80200323:	0f be fb             	movsbl %bl,%edi
ffffffff80200326:	e8 b5 04 00 00       	call   ffffffff802007e0 <vga_putchar>
ffffffff8020032b:	81 fd ff 00 00 00    	cmp    $0xff,%ebp
ffffffff80200331:	74 dd                	je     ffffffff80200310 <_start+0x310>
ffffffff80200333:	48 63 c5             	movslq %ebp,%rax
ffffffff80200336:	83 c5 01             	add    $0x1,%ebp
ffffffff80200339:	88 9c 04 00 01 00 00 	mov    %bl,0x100(%rsp,%rax,1)
ffffffff80200340:	e9 0b fe ff ff       	jmp    ffffffff80200150 <_start+0x150>
ffffffff80200345:	44 88 34 24          	mov    %r14b,(%rsp)
ffffffff80200349:	44 88 74 24 20       	mov    %r14b,0x20(%rsp)
ffffffff8020034e:	66 90                	xchg   %ax,%ax
ffffffff80200350:	c6 04 14 00          	movb   $0x0,(%rsp,%rdx,1)
ffffffff80200354:	e9 e5 fe ff ff       	jmp    ffffffff8020023e <_start+0x23e>
ffffffff80200359:	0f 1f 80 00 00 00 00 	nopl   0x0(%rax)
ffffffff80200360:	bf 0a 00 00 00       	mov    $0xa,%edi
ffffffff80200365:	e8 76 04 00 00       	call   ffffffff802007e0 <vga_putchar>
ffffffff8020036a:	44 88 b4 24 ff 01 00 	mov    %r14b,0x1ff(%rsp)
ffffffff80200371:	00 
ffffffff80200372:	ba ff 00 00 00       	mov    $0xff,%edx
ffffffff80200377:	e9 24 fe ff ff       	jmp    ffffffff802001a0 <_start+0x1a0>
ffffffff8020037c:	0f 1f 40 00          	nopl   0x0(%rax)
ffffffff80200380:	31 c0                	xor    %eax,%eax
ffffffff80200382:	38 02                	cmp    %al,(%rdx)
ffffffff80200384:	0f 85 f6 fe ff ff    	jne    ffffffff80200280 <_start+0x280>
ffffffff8020038a:	4c 89 ff             	mov    %r15,%rdi
ffffffff8020038d:	e8 8e 06 00 00       	call   ffffffff80200a20 <vga_print>
ffffffff80200392:	48 c7 c7 7b 4b 20 80 	mov    $0xffffffff80204b7b,%rdi
ffffffff80200399:	e8 82 06 00 00       	call   ffffffff80200a20 <vga_print>
ffffffff8020039e:	e9 9d fd ff ff       	jmp    ffffffff80200140 <_start+0x140>
ffffffff802003a3:	0f 1f 44 00 00       	nopl   0x0(%rax,%rax,1)
ffffffff802003a8:	b8 1f 00 00 00       	mov    $0x1f,%eax
ffffffff802003ad:	44 88 34 24          	mov    %r14b,(%rsp)
ffffffff802003b1:	44 88 74 24 20       	mov    %r14b,0x20(%rsp)
ffffffff802003b6:	39 c5                	cmp    %eax,%ebp
ffffffff802003b8:	0f 4f e8             	cmovg  %eax,%ebp
ffffffff802003bb:	31 c0                	xor    %eax,%eax
ffffffff802003bd:	0f 1f 00             	nopl   (%rax)
ffffffff802003c0:	41 0f b6 14 04       	movzbl (%r12,%rax,1),%edx
ffffffff802003c5:	41 88 54 05 00       	mov    %dl,0x0(%r13,%rax,1)
ffffffff802003ca:	48 83 c0 01          	add    $0x1,%rax
ffffffff802003ce:	39 c5                	cmp    %eax,%ebp
ffffffff802003d0:	7f ee                	jg     ffffffff802003c0 <_start+0x3c0>
ffffffff802003d2:	48 63 d5             	movslq %ebp,%rdx
ffffffff802003d5:	e9 76 ff ff ff       	jmp    ffffffff80200350 <_start+0x350>
ffffffff802003da:	31 c0                	xor    %eax,%eax
ffffffff802003dc:	e9 d7 fe ff ff       	jmp    ffffffff802002b8 <_start+0x2b8>
ffffffff802003e1:	31 c0                	xor    %eax,%eax
ffffffff802003e3:	38 02                	cmp    %al,(%rdx)
ffffffff802003e5:	0f 84 15 ff ff ff    	je     ffffffff80200300 <_start+0x300>
ffffffff802003eb:	89 f0                	mov    %esi,%eax
ffffffff802003ed:	48 c7 c2 2f 49 20 80 	mov    $0xffffffff8020492f,%rdx
ffffffff802003f4:	4c 89 e9             	mov    %r13,%rcx
ffffffff802003f7:	eb 1b                	jmp    ffffffff80200414 <_start+0x414>
ffffffff802003f9:	0f 1f 80 00 00 00 00 	nopl   0x0(%rax)
ffffffff80200400:	0f b6 41 01          	movzbl 0x1(%rcx),%eax
ffffffff80200404:	48 83 c1 01          	add    $0x1,%rcx
ffffffff80200408:	48 83 c2 01          	add    $0x1,%rdx
ffffffff8020040c:	84 c0                	test   %al,%al
ffffffff8020040e:	0f 84 73 01 00 00    	je     ffffffff80200587 <_start+0x587>
ffffffff80200414:	38 02                	cmp    %al,(%rdx)
ffffffff80200416:	74 e8                	je     ffffffff80200400 <_start+0x400>
ffffffff80200418:	38 02                	cmp    %al,(%rdx)
ffffffff8020041a:	0f 84 71 01 00 00    	je     ffffffff80200591 <_start+0x591>
ffffffff80200420:	89 f0                	mov    %esi,%eax
ffffffff80200422:	48 c7 c2 33 49 20 80 	mov    $0xffffffff80204933,%rdx
ffffffff80200429:	4c 89 e9             	mov    %r13,%rcx
ffffffff8020042c:	eb 26                	jmp    ffffffff80200454 <_start+0x454>
ffffffff8020042e:	66 66 2e 0f 1f 84 00 	data16 cs nopw 0x0(%rax,%rax,1)
ffffffff80200435:	00 00 00 00 
ffffffff80200439:	0f 1f 80 00 00 00 00 	nopl   0x0(%rax)
ffffffff80200440:	0f b6 41 01          	movzbl 0x1(%rcx),%eax
ffffffff80200444:	48 83 c1 01          	add    $0x1,%rcx
ffffffff80200448:	48 83 c2 01          	add    $0x1,%rdx
ffffffff8020044c:	84 c0                	test   %al,%al
ffffffff8020044e:	0f 84 4c 01 00 00    	je     ffffffff802005a0 <_start+0x5a0>
ffffffff80200454:	38 02                	cmp    %al,(%rdx)
ffffffff80200456:	74 e8                	je     ffffffff80200440 <_start+0x440>
ffffffff80200458:	3a 02                	cmp    (%rdx),%al
ffffffff8020045a:	0f 84 4a 01 00 00    	je     ffffffff802005aa <_start+0x5aa>
ffffffff80200460:	89 f2                	mov    %esi,%edx
ffffffff80200462:	48 c7 c0 38 49 20 80 	mov    $0xffffffff80204938,%rax
ffffffff80200469:	4c 89 e9             	mov    %r13,%rcx
ffffffff8020046c:	eb 22                	jmp    ffffffff80200490 <_start+0x490>
ffffffff8020046e:	66 66 2e 0f 1f 84 00 	data16 cs nopw 0x0(%rax,%rax,1)
ffffffff80200475:	00 00 00 00 
ffffffff80200479:	0f 1f 80 00 00 00 00 	nopl   0x0(%rax)
ffffffff80200480:	0f b6 51 01          	movzbl 0x1(%rcx),%edx
ffffffff80200484:	48 83 c1 01          	add    $0x1,%rcx
ffffffff80200488:	48 83 c0 01          	add    $0x1,%rax
ffffffff8020048c:	84 d2                	test   %dl,%dl
ffffffff8020048e:	74 04                	je     ffffffff80200494 <_start+0x494>
ffffffff80200490:	38 10                	cmp    %dl,(%rax)
ffffffff80200492:	74 ec                	je     ffffffff80200480 <_start+0x480>
ffffffff80200494:	3a 10                	cmp    (%rax),%dl
ffffffff80200496:	0f 84 22 01 00 00    	je     ffffffff802005be <_start+0x5be>
ffffffff8020049c:	89 f2                	mov    %esi,%edx
ffffffff8020049e:	48 c7 c0 3d 49 20 80 	mov    $0xffffffff8020493d,%rax
ffffffff802004a5:	4c 89 e9             	mov    %r13,%rcx
ffffffff802004a8:	eb 10                	jmp    ffffffff802004ba <_start+0x4ba>
ffffffff802004aa:	0f b6 51 01          	movzbl 0x1(%rcx),%edx
ffffffff802004ae:	48 83 c1 01          	add    $0x1,%rcx
ffffffff802004b2:	48 83 c0 01          	add    $0x1,%rax
ffffffff802004b6:	84 d2                	test   %dl,%dl
ffffffff802004b8:	74 04                	je     ffffffff802004be <_start+0x4be>
ffffffff802004ba:	38 10                	cmp    %dl,(%rax)
ffffffff802004bc:	74 ec                	je     ffffffff802004aa <_start+0x4aa>
ffffffff802004be:	3a 10                	cmp    (%rax),%dl
ffffffff802004c0:	0f 84 0c 01 00 00    	je     ffffffff802005d2 <_start+0x5d2>
ffffffff802004c6:	89 f2                	mov    %esi,%edx
ffffffff802004c8:	48 c7 c0 42 49 20 80 	mov    $0xffffffff80204942,%rax
ffffffff802004cf:	4c 89 e9             	mov    %r13,%rcx
ffffffff802004d2:	eb 10                	jmp    ffffffff802004e4 <_start+0x4e4>
ffffffff802004d4:	0f b6 51 01          	movzbl 0x1(%rcx),%edx
ffffffff802004d8:	48 83 c1 01          	add    $0x1,%rcx
ffffffff802004dc:	48 83 c0 01          	add    $0x1,%rax
ffffffff802004e0:	84 d2                	test   %dl,%dl
ffffffff802004e2:	74 04                	je     ffffffff802004e8 <_start+0x4e8>
ffffffff802004e4:	38 10                	cmp    %dl,(%rax)
ffffffff802004e6:	74 ec                	je     ffffffff802004d4 <_start+0x4d4>
ffffffff802004e8:	3a 10                	cmp    (%rax),%dl
ffffffff802004ea:	0f 84 1f 01 00 00    	je     ffffffff8020060f <_start+0x60f>
ffffffff802004f0:	89 f2                	mov    %esi,%edx
ffffffff802004f2:	48 c7 c0 47 49 20 80 	mov    $0xffffffff80204947,%rax
ffffffff802004f9:	4c 89 e9             	mov    %r13,%rcx
ffffffff802004fc:	eb 10                	jmp    ffffffff8020050e <_start+0x50e>
ffffffff802004fe:	0f b6 51 01          	movzbl 0x1(%rcx),%edx
ffffffff80200502:	48 83 c1 01          	add    $0x1,%rcx
ffffffff80200506:	48 83 c0 01          	add    $0x1,%rax
ffffffff8020050a:	84 d2                	test   %dl,%dl
ffffffff8020050c:	74 04                	je     ffffffff80200512 <_start+0x512>
ffffffff8020050e:	38 10                	cmp    %dl,(%rax)
ffffffff80200510:	74 ec                	je     ffffffff802004fe <_start+0x4fe>
ffffffff80200512:	3a 10                	cmp    (%rax),%dl
ffffffff80200514:	0f 84 c5 00 00 00    	je     ffffffff802005df <_start+0x5df>
ffffffff8020051a:	89 f2                	mov    %esi,%edx
ffffffff8020051c:	48 c7 c0 50 49 20 80 	mov    $0xffffffff80204950,%rax
ffffffff80200523:	4c 89 e9             	mov    %r13,%rcx
ffffffff80200526:	eb 10                	jmp    ffffffff80200538 <_start+0x538>
ffffffff80200528:	0f b6 51 01          	movzbl 0x1(%rcx),%edx
ffffffff8020052c:	48 83 c1 01          	add    $0x1,%rcx
ffffffff80200530:	48 83 c0 01          	add    $0x1,%rax
ffffffff80200534:	84 d2                	test   %dl,%dl
ffffffff80200536:	74 04                	je     ffffffff8020053c <_start+0x53c>
ffffffff80200538:	38 10                	cmp    %dl,(%rax)
ffffffff8020053a:	74 ec                	je     ffffffff80200528 <_start+0x528>
ffffffff8020053c:	3a 10                	cmp    (%rax),%dl
ffffffff8020053e:	0f 84 9b 00 00 00    	je     ffffffff802005df <_start+0x5df>
ffffffff80200544:	48 c7 c0 55 49 20 80 	mov    $0xffffffff80204955,%rax
ffffffff8020054b:	4c 89 ea             	mov    %r13,%rdx
ffffffff8020054e:	eb 11                	jmp    ffffffff80200561 <_start+0x561>
ffffffff80200550:	0f b6 72 01          	movzbl 0x1(%rdx),%esi
ffffffff80200554:	48 83 c2 01          	add    $0x1,%rdx
ffffffff80200558:	48 83 c0 01          	add    $0x1,%rax
ffffffff8020055c:	40 84 f6             	test   %sil,%sil
ffffffff8020055f:	74 05                	je     ffffffff80200566 <_start+0x566>
ffffffff80200561:	40 38 30             	cmp    %sil,(%rax)
ffffffff80200564:	74 ea                	je     ffffffff80200550 <_start+0x550>
ffffffff80200566:	40 3a 30             	cmp    (%rax),%sil
ffffffff80200569:	0f 84 af 00 00 00    	je     ffffffff8020061e <_start+0x61e>
ffffffff8020056f:	48 c7 c7 88 4c 20 80 	mov    $0xffffffff80204c88,%rdi
ffffffff80200576:	e8 a5 04 00 00       	call   ffffffff80200a20 <vga_print>
ffffffff8020057b:	e9 c0 fb ff ff       	jmp    ffffffff80200140 <_start+0x140>
ffffffff80200580:	31 ed                	xor    %ebp,%ebp
ffffffff80200582:	e9 af fc ff ff       	jmp    ffffffff80200236 <_start+0x236>
ffffffff80200587:	31 c0                	xor    %eax,%eax
ffffffff80200589:	38 02                	cmp    %al,(%rdx)
ffffffff8020058b:	0f 85 8f fe ff ff    	jne    ffffffff80200420 <_start+0x420>
ffffffff80200591:	e8 fa 16 00 00       	call   ffffffff80201c90 <tarfs_dir>
ffffffff80200596:	e8 a5 1c 00 00       	call   ffffffff80202240 <fat16_dir>
ffffffff8020059b:	e9 a0 fb ff ff       	jmp    ffffffff80200140 <_start+0x140>
ffffffff802005a0:	31 c0                	xor    %eax,%eax
ffffffff802005a2:	3a 02                	cmp    (%rdx),%al
ffffffff802005a4:	0f 85 b6 fe ff ff    	jne    ffffffff80200460 <_start+0x460>
ffffffff802005aa:	4c 89 fe             	mov    %r15,%rsi
ffffffff802005ad:	48 c7 c7 a4 4a 20 80 	mov    $0xffffffff80204aa4,%rdi
ffffffff802005b4:	e8 c7 2c 00 00       	call   ffffffff80203280 <process_exec>
ffffffff802005b9:	e9 82 fb ff ff       	jmp    ffffffff80200140 <_start+0x140>
ffffffff802005be:	4c 89 fe             	mov    %r15,%rsi
ffffffff802005c1:	48 c7 c7 af 4a 20 80 	mov    $0xffffffff80204aaf,%rdi
ffffffff802005c8:	e8 b3 2c 00 00       	call   ffffffff80203280 <process_exec>
ffffffff802005cd:	e9 6e fb ff ff       	jmp    ffffffff80200140 <_start+0x140>
ffffffff802005d2:	4c 89 ff             	mov    %r15,%rdi
ffffffff802005d5:	e8 a6 17 00 00       	call   ffffffff80201d80 <tarfs_type>
ffffffff802005da:	e9 61 fb ff ff       	jmp    ffffffff80200140 <_start+0x140>
ffffffff802005df:	48 c7 c7 58 4c 20 80 	mov    $0xffffffff80204c58,%rdi
ffffffff802005e6:	e8 35 04 00 00       	call   ffffffff80200a20 <vga_print>
ffffffff802005eb:	48 c7 c7 b8 4a 20 80 	mov    $0xffffffff80204ab8,%rdi
ffffffff802005f2:	e8 29 04 00 00       	call   ffffffff80200a20 <vga_print>
ffffffff802005f7:	48 c7 c7 d1 4a 20 80 	mov    $0xffffffff80204ad1,%rdi
ffffffff802005fe:	e8 1d 04 00 00       	call   ffffffff80200a20 <vga_print>
ffffffff80200603:	e8 78 26 00 00       	call   ffffffff80202c80 <acpi_poweroff>
ffffffff80200608:	fa                   	cli
ffffffff80200609:	f4                   	hlt
ffffffff8020060a:	e9 31 fb ff ff       	jmp    ffffffff80200140 <_start+0x140>
ffffffff8020060f:	31 f6                	xor    %esi,%esi
ffffffff80200611:	4c 89 ff             	mov    %r15,%rdi
ffffffff80200614:	e8 67 2c 00 00       	call   ffffffff80203280 <process_exec>
ffffffff80200619:	e9 22 fb ff ff       	jmp    ffffffff80200140 <_start+0x140>
ffffffff8020061e:	48 c7 c7 ea 4a 20 80 	mov    $0xffffffff80204aea,%rdi
ffffffff80200625:	e8 f6 03 00 00       	call   ffffffff80200a20 <vga_print>
ffffffff8020062a:	e4 64                	in     $0x64,%al
ffffffff8020062c:	a8 02                	test   $0x2,%al
ffffffff8020062e:	75 fa                	jne    ffffffff8020062a <_start+0x62a>
ffffffff80200630:	b8 fe ff ff ff       	mov    $0xfffffffe,%eax
ffffffff80200635:	e6 64                	out    %al,$0x64
ffffffff80200637:	fa                   	cli
ffffffff80200638:	f4                   	hlt
ffffffff80200639:	e9 02 fb ff ff       	jmp    ffffffff80200140 <_start+0x140>
ffffffff8020063e:	66 90                	xchg   %ax,%ax

ffffffff80200640 <vga_clear>:
ffffffff80200640:	48 8b 15 b1 6d 00 00 	mov    0x6db1(%rip),%rdx        # ffffffff802073f8 <fb>
ffffffff80200647:	48 85 d2             	test   %rdx,%rdx
ffffffff8020064a:	74 58                	je     ffffffff802006a4 <vga_clear+0x64>
ffffffff8020064c:	48 8b 4a 08          	mov    0x8(%rdx),%rcx
ffffffff80200650:	48 0f af 4a 10       	imul   0x10(%rdx),%rcx
ffffffff80200655:	48 8b 02             	mov    (%rdx),%rax
ffffffff80200658:	48 85 c9             	test   %rcx,%rcx
ffffffff8020065b:	74 31                	je     ffffffff8020068e <vga_clear+0x4e>
ffffffff8020065d:	48 8d 34 88          	lea    (%rax,%rcx,4),%rsi
ffffffff80200661:	83 e1 01             	and    $0x1,%ecx
ffffffff80200664:	8b 15 76 6d 00 00    	mov    0x6d76(%rip),%edx        # ffffffff802073e0 <bg_color>
ffffffff8020066a:	74 14                	je     ffffffff80200680 <vga_clear+0x40>
ffffffff8020066c:	89 10                	mov    %edx,(%rax)
ffffffff8020066e:	48 83 c0 04          	add    $0x4,%rax
ffffffff80200672:	48 39 f0             	cmp    %rsi,%rax
ffffffff80200675:	74 17                	je     ffffffff8020068e <vga_clear+0x4e>
ffffffff80200677:	66 0f 1f 84 00 00 00 	nopw   0x0(%rax,%rax,1)
ffffffff8020067e:	00 00 
ffffffff80200680:	89 10                	mov    %edx,(%rax)
ffffffff80200682:	48 83 c0 08          	add    $0x8,%rax
ffffffff80200686:	89 50 fc             	mov    %edx,-0x4(%rax)
ffffffff80200689:	48 39 f0             	cmp    %rsi,%rax
ffffffff8020068c:	75 f2                	jne    ffffffff80200680 <vga_clear+0x40>
ffffffff8020068e:	48 c7 05 57 6d 00 00 	movq   $0x0,0x6d57(%rip)        # ffffffff802073f0 <terminal_row>
ffffffff80200695:	00 00 00 00 
ffffffff80200699:	48 c7 05 44 6d 00 00 	movq   $0x0,0x6d44(%rip)        # ffffffff802073e8 <terminal_column>
ffffffff802006a0:	00 00 00 00 
ffffffff802006a4:	c3                   	ret
ffffffff802006a5:	66 66 2e 0f 1f 84 00 	data16 cs nopw 0x0(%rax,%rax,1)
ffffffff802006ac:	00 00 00 00 

ffffffff802006b0 <vga_init>:
ffffffff802006b0:	48 8b 05 d1 67 00 00 	mov    0x67d1(%rip),%rax        # ffffffff80206e88 <framebuffer_request+0x28>
ffffffff802006b7:	48 85 c0             	test   %rax,%rax
ffffffff802006ba:	74 0e                	je     ffffffff802006ca <vga_init+0x1a>
ffffffff802006bc:	48 8b 05 c5 67 00 00 	mov    0x67c5(%rip),%rax        # ffffffff80206e88 <framebuffer_request+0x28>
ffffffff802006c3:	48 83 78 08 00       	cmpq   $0x0,0x8(%rax)
ffffffff802006c8:	75 06                	jne    ffffffff802006d0 <vga_init+0x20>
ffffffff802006ca:	c3                   	ret
ffffffff802006cb:	0f 1f 44 00 00       	nopl   0x0(%rax,%rax,1)
ffffffff802006d0:	48 8b 05 b1 67 00 00 	mov    0x67b1(%rip),%rax        # ffffffff80206e88 <framebuffer_request+0x28>
ffffffff802006d7:	48 8b 40 10          	mov    0x10(%rax),%rax
ffffffff802006db:	48 8b 00             	mov    (%rax),%rax
ffffffff802006de:	48 89 05 13 6d 00 00 	mov    %rax,0x6d13(%rip)        # ffffffff802073f8 <fb>
ffffffff802006e5:	e9 56 ff ff ff       	jmp    ffffffff80200640 <vga_clear>
ffffffff802006ea:	66 0f 1f 44 00 00    	nopw   0x0(%rax,%rax,1)

ffffffff802006f0 <vga_set_cursor>:
ffffffff802006f0:	48 89 3d f9 6c 00 00 	mov    %rdi,0x6cf9(%rip)        # ffffffff802073f0 <terminal_row>
ffffffff802006f7:	48 89 35 ea 6c 00 00 	mov    %rsi,0x6cea(%rip)        # ffffffff802073e8 <terminal_column>
ffffffff802006fe:	c3                   	ret
ffffffff802006ff:	90                   	nop

ffffffff80200700 <vga_get_max_rows>:
ffffffff80200700:	48 8b 05 f1 6c 00 00 	mov    0x6cf1(%rip),%rax        # ffffffff802073f8 <fb>
ffffffff80200707:	48 85 c0             	test   %rax,%rax
ffffffff8020070a:	74 0c                	je     ffffffff80200718 <vga_get_max_rows+0x18>
ffffffff8020070c:	48 8b 40 10          	mov    0x10(%rax),%rax
ffffffff80200710:	48 c1 e8 04          	shr    $0x4,%rax
ffffffff80200714:	c3                   	ret
ffffffff80200715:	0f 1f 00             	nopl   (%rax)
ffffffff80200718:	b8 19 00 00 00       	mov    $0x19,%eax
ffffffff8020071d:	c3                   	ret
ffffffff8020071e:	66 90                	xchg   %ax,%ax

ffffffff80200720 <vga_get_max_cols>:
ffffffff80200720:	48 8b 05 d1 6c 00 00 	mov    0x6cd1(%rip),%rax        # ffffffff802073f8 <fb>
ffffffff80200727:	48 85 c0             	test   %rax,%rax
ffffffff8020072a:	74 0c                	je     ffffffff80200738 <vga_get_max_cols+0x18>
ffffffff8020072c:	48 8b 40 08          	mov    0x8(%rax),%rax
ffffffff80200730:	48 c1 e8 04          	shr    $0x4,%rax
ffffffff80200734:	c3                   	ret
ffffffff80200735:	0f 1f 00             	nopl   (%rax)
ffffffff80200738:	b8 50 00 00 00       	mov    $0x50,%eax
ffffffff8020073d:	c3                   	ret
ffffffff8020073e:	66 90                	xchg   %ax,%ax

ffffffff80200740 <vga_set_color>:
ffffffff80200740:	48 83 ec 40          	sub    $0x40,%rsp
ffffffff80200744:	83 e7 0f             	and    $0xf,%edi
ffffffff80200747:	83 e6 0f             	and    $0xf,%esi
ffffffff8020074a:	48 b8 00 00 00 00 aa 	movabs $0xaa00000000,%rax
ffffffff80200751:	00 00 00 
ffffffff80200754:	48 89 04 24          	mov    %rax,(%rsp)
ffffffff80200758:	48 b8 00 aa 00 00 aa 	movabs $0xaaaa0000aa00,%rax
ffffffff8020075f:	aa 00 00 
ffffffff80200762:	48 89 44 24 08       	mov    %rax,0x8(%rsp)
ffffffff80200767:	48 b8 00 00 aa 00 aa 	movabs $0xaa00aa00aa0000,%rax
ffffffff8020076e:	00 aa 00 
ffffffff80200771:	48 89 44 24 10       	mov    %rax,0x10(%rsp)
ffffffff80200776:	48 b8 00 55 aa 00 aa 	movabs $0xaaaaaa00aa5500,%rax
ffffffff8020077d:	aa aa 00 
ffffffff80200780:	48 89 44 24 18       	mov    %rax,0x18(%rsp)
ffffffff80200785:	48 b8 55 55 55 00 ff 	movabs $0x5555ff00555555,%rax
ffffffff8020078c:	55 55 00 
ffffffff8020078f:	48 89 44 24 20       	mov    %rax,0x20(%rsp)
ffffffff80200794:	48 b8 55 ff 55 00 ff 	movabs $0x55ffff0055ff55,%rax
ffffffff8020079b:	ff 55 00 
ffffffff8020079e:	48 89 44 24 28       	mov    %rax,0x28(%rsp)
ffffffff802007a3:	48 b8 55 55 ff 00 ff 	movabs $0xff55ff00ff5555,%rax
ffffffff802007aa:	55 ff 00 
ffffffff802007ad:	48 89 44 24 30       	mov    %rax,0x30(%rsp)
ffffffff802007b2:	48 b8 55 ff ff 00 ff 	movabs $0xffffff00ffff55,%rax
ffffffff802007b9:	ff ff 00 
ffffffff802007bc:	48 89 44 24 38       	mov    %rax,0x38(%rsp)
ffffffff802007c1:	8b 04 bc             	mov    (%rsp,%rdi,4),%eax
ffffffff802007c4:	89 05 d6 67 00 00    	mov    %eax,0x67d6(%rip)        # ffffffff80206fa0 <fg_color>
ffffffff802007ca:	8b 04 b4             	mov    (%rsp,%rsi,4),%eax
ffffffff802007cd:	89 05 0d 6c 00 00    	mov    %eax,0x6c0d(%rip)        # ffffffff802073e0 <bg_color>
ffffffff802007d3:	48 83 c4 40          	add    $0x40,%rsp
ffffffff802007d7:	c3                   	ret
ffffffff802007d8:	0f 1f 84 00 00 00 00 	nopl   0x0(%rax,%rax,1)
ffffffff802007df:	00 

ffffffff802007e0 <vga_putchar>:
ffffffff802007e0:	89 f8                	mov    %edi,%eax
ffffffff802007e2:	ba f8 03 00 00       	mov    $0x3f8,%edx
ffffffff802007e7:	ee                   	out    %al,(%dx)
ffffffff802007e8:	48 8b 15 09 6c 00 00 	mov    0x6c09(%rip),%rdx        # ffffffff802073f8 <fb>
ffffffff802007ef:	48 85 d2             	test   %rdx,%rdx
ffffffff802007f2:	0f 84 ee 01 00 00    	je     ffffffff802009e6 <vga_putchar+0x206>
ffffffff802007f8:	48 8b 35 f1 6b 00 00 	mov    0x6bf1(%rip),%rsi        # ffffffff802073f0 <terminal_row>
ffffffff802007ff:	40 80 ff 08          	cmp    $0x8,%dil
ffffffff80200803:	0f 84 50 01 00 00    	je     ffffffff80200959 <vga_putchar+0x179>
ffffffff80200809:	40 80 ff 0a          	cmp    $0xa,%dil
ffffffff8020080d:	0f 84 d4 01 00 00    	je     ffffffff802009e7 <vga_putchar+0x207>
ffffffff80200813:	41 57                	push   %r15
ffffffff80200815:	0f b6 c0             	movzbl %al,%eax
ffffffff80200818:	41 b9 01 00 00 00    	mov    $0x1,%r9d
ffffffff8020081e:	41 56                	push   %r14
ffffffff80200820:	4c 8d 04 c5 c0 6f 20 	lea    -0x7fdf9040(,%rax,8),%r8
ffffffff80200827:	80 
ffffffff80200828:	41 55                	push   %r13
ffffffff8020082a:	41 54                	push   %r12
ffffffff8020082c:	55                   	push   %rbp
ffffffff8020082d:	49 8d 68 08          	lea    0x8(%r8),%rbp
ffffffff80200831:	53                   	push   %rbx
ffffffff80200832:	48 83 ec 08          	sub    $0x8,%rsp
ffffffff80200836:	48 8b 5a 18          	mov    0x18(%rdx),%rbx
ffffffff8020083a:	4c 8b 2d a7 6b 00 00 	mov    0x6ba7(%rip),%r13        # ffffffff802073e8 <terminal_column>
ffffffff80200841:	48 89 14 24          	mov    %rdx,(%rsp)
ffffffff80200845:	44 8b 1d 94 6b 00 00 	mov    0x6b94(%rip),%r11d        # ffffffff802073e0 <bg_color>
ffffffff8020084c:	48 c1 eb 02          	shr    $0x2,%rbx
ffffffff80200850:	44 8b 15 49 67 00 00 	mov    0x6749(%rip),%r10d        # ffffffff80206fa0 <fg_color>
ffffffff80200857:	48 89 df             	mov    %rbx,%rdi
ffffffff8020085a:	4c 8d 24 dd 00 00 00 	lea    0x0(,%rbx,8),%r12
ffffffff80200861:	00 
ffffffff80200862:	48 c1 e3 02          	shl    $0x2,%rbx
ffffffff80200866:	48 0f af fe          	imul   %rsi,%rdi
ffffffff8020086a:	4c 01 ef             	add    %r13,%rdi
ffffffff8020086d:	48 c1 e7 06          	shl    $0x6,%rdi
ffffffff80200871:	48 03 3a             	add    (%rdx),%rdi
ffffffff80200874:	66 66 2e 0f 1f 84 00 	data16 cs nopw 0x0(%rax,%rax,1)
ffffffff8020087b:	00 00 00 00 
ffffffff8020087f:	90                   	nop
ffffffff80200880:	48 8d 14 1f          	lea    (%rdi,%rbx,1),%rdx
ffffffff80200884:	48 89 f8             	mov    %rdi,%rax
ffffffff80200887:	31 c9                	xor    %ecx,%ecx
ffffffff80200889:	66 66 2e 0f 1f 84 00 	data16 cs nopw 0x0(%rax,%rax,1)
ffffffff80200890:	00 00 00 00 
ffffffff80200894:	66 66 2e 0f 1f 84 00 	data16 cs nopw 0x0(%rax,%rax,1)
ffffffff8020089b:	00 00 00 00 
ffffffff8020089f:	66 66 2e 0f 1f 84 00 	data16 cs nopw 0x0(%rax,%rax,1)
ffffffff802008a6:	00 00 00 00 
ffffffff802008aa:	66 66 2e 0f 1f 84 00 	data16 cs nopw 0x0(%rax,%rax,1)
ffffffff802008b1:	00 00 00 00 
ffffffff802008b5:	66 66 2e 0f 1f 84 00 	data16 cs nopw 0x0(%rax,%rax,1)
ffffffff802008bc:	00 00 00 00 
ffffffff802008c0:	45 0f b6 30          	movzbl (%r8),%r14d
ffffffff802008c4:	45 89 cf             	mov    %r9d,%r15d
ffffffff802008c7:	41 d3 e7             	shl    %cl,%r15d
ffffffff802008ca:	45 85 fe             	test   %r15d,%r14d
ffffffff802008cd:	45 89 de             	mov    %r11d,%r14d
ffffffff802008d0:	45 0f 45 f2          	cmovne %r10d,%r14d
ffffffff802008d4:	83 c1 01             	add    $0x1,%ecx
ffffffff802008d7:	48 83 c0 08          	add    $0x8,%rax
ffffffff802008db:	48 83 c2 08          	add    $0x8,%rdx
ffffffff802008df:	44 89 70 f8          	mov    %r14d,-0x8(%rax)
ffffffff802008e3:	44 89 70 fc          	mov    %r14d,-0x4(%rax)
ffffffff802008e7:	44 89 72 f8          	mov    %r14d,-0x8(%rdx)
ffffffff802008eb:	44 89 72 fc          	mov    %r14d,-0x4(%rdx)
ffffffff802008ef:	83 f9 08             	cmp    $0x8,%ecx
ffffffff802008f2:	75 cc                	jne    ffffffff802008c0 <vga_putchar+0xe0>
ffffffff802008f4:	49 83 c0 01          	add    $0x1,%r8
ffffffff802008f8:	4c 01 e7             	add    %r12,%rdi
ffffffff802008fb:	49 39 e8             	cmp    %rbp,%r8
ffffffff802008fe:	75 80                	jne    ffffffff80200880 <vga_putchar+0xa0>
ffffffff80200900:	48 8b 14 24          	mov    (%rsp),%rdx
ffffffff80200904:	49 83 c5 01          	add    $0x1,%r13
ffffffff80200908:	4c 89 2d d9 6a 00 00 	mov    %r13,0x6ad9(%rip)        # ffffffff802073e8 <terminal_column>
ffffffff8020090f:	48 8b 42 08          	mov    0x8(%rdx),%rax
ffffffff80200913:	48 c1 e8 04          	shr    $0x4,%rax
ffffffff80200917:	49 39 c5             	cmp    %rax,%r13
ffffffff8020091a:	72 2e                	jb     ffffffff8020094a <vga_putchar+0x16a>
ffffffff8020091c:	48 8b 42 10          	mov    0x10(%rdx),%rax
ffffffff80200920:	48 83 c6 01          	add    $0x1,%rsi
ffffffff80200924:	48 c7 05 b9 6a 00 00 	movq   $0x0,0x6ab9(%rip)        # ffffffff802073e8 <terminal_column>
ffffffff8020092b:	00 00 00 00 
ffffffff8020092f:	48 89 35 ba 6a 00 00 	mov    %rsi,0x6aba(%rip)        # ffffffff802073f0 <terminal_row>
ffffffff80200936:	48 c1 e8 04          	shr    $0x4,%rax
ffffffff8020093a:	48 39 c6             	cmp    %rax,%rsi
ffffffff8020093d:	72 0b                	jb     ffffffff8020094a <vga_putchar+0x16a>
ffffffff8020093f:	48 c7 05 a6 6a 00 00 	movq   $0x0,0x6aa6(%rip)        # ffffffff802073f0 <terminal_row>
ffffffff80200946:	00 00 00 00 
ffffffff8020094a:	48 83 c4 08          	add    $0x8,%rsp
ffffffff8020094e:	5b                   	pop    %rbx
ffffffff8020094f:	5d                   	pop    %rbp
ffffffff80200950:	41 5c                	pop    %r12
ffffffff80200952:	41 5d                	pop    %r13
ffffffff80200954:	41 5e                	pop    %r14
ffffffff80200956:	41 5f                	pop    %r15
ffffffff80200958:	c3                   	ret
ffffffff80200959:	48 8b 05 88 6a 00 00 	mov    0x6a88(%rip),%rax        # ffffffff802073e8 <terminal_column>
ffffffff80200960:	48 85 c0             	test   %rax,%rax
ffffffff80200963:	75 1a                	jne    ffffffff8020097f <vga_putchar+0x19f>
ffffffff80200965:	31 c0                	xor    %eax,%eax
ffffffff80200967:	48 85 f6             	test   %rsi,%rsi
ffffffff8020096a:	74 1e                	je     ffffffff8020098a <vga_putchar+0x1aa>
ffffffff8020096c:	48 83 ee 01          	sub    $0x1,%rsi
ffffffff80200970:	48 8b 42 08          	mov    0x8(%rdx),%rax
ffffffff80200974:	48 89 35 75 6a 00 00 	mov    %rsi,0x6a75(%rip)        # ffffffff802073f0 <terminal_row>
ffffffff8020097b:	48 c1 e8 04          	shr    $0x4,%rax
ffffffff8020097f:	48 83 e8 01          	sub    $0x1,%rax
ffffffff80200983:	48 89 05 5e 6a 00 00 	mov    %rax,0x6a5e(%rip)        # ffffffff802073e8 <terminal_column>
ffffffff8020098a:	48 8b 7a 18          	mov    0x18(%rdx),%rdi
ffffffff8020098e:	48 8b 12             	mov    (%rdx),%rdx
ffffffff80200991:	8b 0d 49 6a 00 00    	mov    0x6a49(%rip),%ecx        # ffffffff802073e0 <bg_color>
ffffffff80200997:	49 89 f8             	mov    %rdi,%r8
ffffffff8020099a:	48 83 e7 fc          	and    $0xfffffffffffffffc,%rdi
ffffffff8020099e:	49 c1 e8 02          	shr    $0x2,%r8
ffffffff802009a2:	49 0f af f0          	imul   %r8,%rsi
ffffffff802009a6:	48 01 f0             	add    %rsi,%rax
ffffffff802009a9:	be 10 00 00 00       	mov    $0x10,%esi
ffffffff802009ae:	48 c1 e0 06          	shl    $0x6,%rax
ffffffff802009b2:	48 8d 54 02 40       	lea    0x40(%rdx,%rax,1),%rdx
ffffffff802009b7:	66 0f 1f 84 00 00 00 	nopw   0x0(%rax,%rax,1)
ffffffff802009be:	00 00 
ffffffff802009c0:	48 8d 42 c0          	lea    -0x40(%rdx),%rax
ffffffff802009c4:	66 66 2e 0f 1f 84 00 	data16 cs nopw 0x0(%rax,%rax,1)
ffffffff802009cb:	00 00 00 00 
ffffffff802009cf:	90                   	nop
ffffffff802009d0:	89 08                	mov    %ecx,(%rax)
ffffffff802009d2:	48 83 c0 08          	add    $0x8,%rax
ffffffff802009d6:	89 48 fc             	mov    %ecx,-0x4(%rax)
ffffffff802009d9:	48 39 c2             	cmp    %rax,%rdx
ffffffff802009dc:	75 f2                	jne    ffffffff802009d0 <vga_putchar+0x1f0>
ffffffff802009de:	48 01 fa             	add    %rdi,%rdx
ffffffff802009e1:	83 ee 01             	sub    $0x1,%esi
ffffffff802009e4:	75 da                	jne    ffffffff802009c0 <vga_putchar+0x1e0>
ffffffff802009e6:	c3                   	ret
ffffffff802009e7:	48 8b 42 10          	mov    0x10(%rdx),%rax
ffffffff802009eb:	48 83 c6 01          	add    $0x1,%rsi
ffffffff802009ef:	48 c7 05 ee 69 00 00 	movq   $0x0,0x69ee(%rip)        # ffffffff802073e8 <terminal_column>
ffffffff802009f6:	00 00 00 00 
ffffffff802009fa:	48 89 35 ef 69 00 00 	mov    %rsi,0x69ef(%rip)        # ffffffff802073f0 <terminal_row>
ffffffff80200a01:	48 c1 e8 04          	shr    $0x4,%rax
ffffffff80200a05:	48 39 c6             	cmp    %rax,%rsi
ffffffff80200a08:	72 dc                	jb     ffffffff802009e6 <vga_putchar+0x206>
ffffffff80200a0a:	48 c7 05 db 69 00 00 	movq   $0x0,0x69db(%rip)        # ffffffff802073f0 <terminal_row>
ffffffff80200a11:	00 00 00 00 
ffffffff80200a15:	c3                   	ret
ffffffff80200a16:	66 2e 0f 1f 84 00 00 	cs nopw 0x0(%rax,%rax,1)
ffffffff80200a1d:	00 00 00 

ffffffff80200a20 <vga_print>:
ffffffff80200a20:	0f b6 07             	movzbl (%rdi),%eax
ffffffff80200a23:	84 c0                	test   %al,%al
ffffffff80200a25:	74 29                	je     ffffffff80200a50 <vga_print+0x30>
ffffffff80200a27:	53                   	push   %rbx
ffffffff80200a28:	48 8d 5f 01          	lea    0x1(%rdi),%rbx
ffffffff80200a2c:	0f 1f 40 00          	nopl   0x0(%rax)
ffffffff80200a30:	0f be f8             	movsbl %al,%edi
ffffffff80200a33:	48 83 c3 01          	add    $0x1,%rbx
ffffffff80200a37:	e8 a4 fd ff ff       	call   ffffffff802007e0 <vga_putchar>
ffffffff80200a3c:	0f b6 43 ff          	movzbl -0x1(%rbx),%eax
ffffffff80200a40:	84 c0                	test   %al,%al
ffffffff80200a42:	75 ec                	jne    ffffffff80200a30 <vga_print+0x10>
ffffffff80200a44:	5b                   	pop    %rbx
ffffffff80200a45:	c3                   	ret
ffffffff80200a46:	66 2e 0f 1f 84 00 00 	cs nopw 0x0(%rax,%rax,1)
ffffffff80200a4d:	00 00 00 
ffffffff80200a50:	c3                   	ret
ffffffff80200a51:	66 66 2e 0f 1f 84 00 	data16 cs nopw 0x0(%rax,%rax,1)
ffffffff80200a58:	00 00 00 00 
ffffffff80200a5c:	0f 1f 40 00          	nopl   0x0(%rax)

ffffffff80200a60 <vga_print_hex>:
ffffffff80200a60:	41 54                	push   %r12
ffffffff80200a62:	55                   	push   %rbp
ffffffff80200a63:	53                   	push   %rbx
ffffffff80200a64:	48 83 ec 20          	sub    $0x20,%rsp
ffffffff80200a68:	48 85 ff             	test   %rdi,%rdi
ffffffff80200a6b:	75 73                	jne    ffffffff80200ae0 <vga_print_hex+0x80>
ffffffff80200a6d:	c6 44 24 0c 30       	movb   $0x30,0xc(%rsp)
ffffffff80200a72:	41 bc 01 00 00 00    	mov    $0x1,%r12d
ffffffff80200a78:	48 8d 6c 24 0b       	lea    0xb(%rsp),%rbp
ffffffff80200a7d:	48 c7 c3 05 4b 20 80 	mov    $0xffffffff80204b05,%rbx
ffffffff80200a84:	bf 30 00 00 00       	mov    $0x30,%edi
ffffffff80200a89:	0f 1f 80 00 00 00 00 	nopl   0x0(%rax)
ffffffff80200a90:	e8 4b fd ff ff       	call   ffffffff802007e0 <vga_putchar>
ffffffff80200a95:	0f be 3b             	movsbl (%rbx),%edi
ffffffff80200a98:	48 83 c3 01          	add    $0x1,%rbx
ffffffff80200a9c:	40 84 ff             	test   %dil,%dil
ffffffff80200a9f:	75 ef                	jne    ffffffff80200a90 <vga_print_hex+0x30>
ffffffff80200aa1:	49 63 c4             	movslq %r12d,%rax
ffffffff80200aa4:	48 01 c5             	add    %rax,%rbp
ffffffff80200aa7:	48 8d 5c 04 0c       	lea    0xc(%rsp,%rax,1),%rbx
ffffffff80200aac:	41 8d 44 24 ff       	lea    -0x1(%r12),%eax
ffffffff80200ab1:	48 29 c5             	sub    %rax,%rbp
ffffffff80200ab4:	66 66 2e 0f 1f 84 00 	data16 cs nopw 0x0(%rax,%rax,1)
ffffffff80200abb:	00 00 00 00 
ffffffff80200abf:	90                   	nop
ffffffff80200ac0:	0f be 7b ff          	movsbl -0x1(%rbx),%edi
ffffffff80200ac4:	48 83 eb 01          	sub    $0x1,%rbx
ffffffff80200ac8:	e8 13 fd ff ff       	call   ffffffff802007e0 <vga_putchar>
ffffffff80200acd:	48 39 dd             	cmp    %rbx,%rbp
ffffffff80200ad0:	75 ee                	jne    ffffffff80200ac0 <vga_print_hex+0x60>
ffffffff80200ad2:	48 83 c4 20          	add    $0x20,%rsp
ffffffff80200ad6:	5b                   	pop    %rbx
ffffffff80200ad7:	5d                   	pop    %rbp
ffffffff80200ad8:	41 5c                	pop    %r12
ffffffff80200ada:	c3                   	ret
ffffffff80200adb:	0f 1f 44 00 00       	nopl   0x0(%rax,%rax,1)
ffffffff80200ae0:	41 bc 01 00 00 00    	mov    $0x1,%r12d
ffffffff80200ae6:	48 8d 6c 24 0b       	lea    0xb(%rsp),%rbp
ffffffff80200aeb:	eb 16                	jmp    ffffffff80200b03 <vga_print_hex+0xa3>
ffffffff80200aed:	66 66 2e 0f 1f 84 00 	data16 cs nopw 0x0(%rax,%rax,1)
ffffffff80200af4:	00 00 00 00 
ffffffff80200af8:	0f 1f 84 00 00 00 00 	nopl   0x0(%rax,%rax,1)
ffffffff80200aff:	00 
ffffffff80200b00:	49 89 c4             	mov    %rax,%r12
ffffffff80200b03:	89 fa                	mov    %edi,%edx
ffffffff80200b05:	83 e2 0f             	and    $0xf,%edx
ffffffff80200b08:	83 fa 09             	cmp    $0x9,%edx
ffffffff80200b0b:	8d 4a 30             	lea    0x30(%rdx),%ecx
ffffffff80200b0e:	8d 42 37             	lea    0x37(%rdx),%eax
ffffffff80200b11:	0f 4e c1             	cmovle %ecx,%eax
ffffffff80200b14:	48 c1 ef 04          	shr    $0x4,%rdi
ffffffff80200b18:	42 88 44 25 00       	mov    %al,0x0(%rbp,%r12,1)
ffffffff80200b1d:	49 8d 44 24 01       	lea    0x1(%r12),%rax
ffffffff80200b22:	75 dc                	jne    ffffffff80200b00 <vga_print_hex+0xa0>
ffffffff80200b24:	e9 54 ff ff ff       	jmp    ffffffff80200a7d <vga_print_hex+0x1d>
ffffffff80200b29:	0f 1f 80 00 00 00 00 	nopl   0x0(%rax)

ffffffff80200b30 <gdt_set_gate>:
ffffffff80200b30:	53                   	push   %rbx
ffffffff80200b31:	89 cb                	mov    %ecx,%ebx
ffffffff80200b33:	48 63 cf             	movslq %edi,%rcx
ffffffff80200b36:	48 89 f7             	mov    %rsi,%rdi
ffffffff80200b39:	66 89 14 cd 80 74 20 	mov    %dx,-0x7fdf8b80(,%rcx,8)
ffffffff80200b40:	80 
ffffffff80200b41:	48 c1 ea 10          	shr    $0x10,%rdx
ffffffff80200b45:	31 c0                	xor    %eax,%eax
ffffffff80200b47:	48 c1 ef 10          	shr    $0x10,%rdi
ffffffff80200b4b:	83 e2 0f             	and    $0xf,%edx
ffffffff80200b4e:	41 83 e0 f0          	and    $0xfffffff0,%r8d
ffffffff80200b52:	40 88 f8             	mov    %dil,%al
ffffffff80200b55:	66 89 34 cd 82 74 20 	mov    %si,-0x7fdf8b7e(,%rcx,8)
ffffffff80200b5c:	80 
ffffffff80200b5d:	44 09 c2             	or     %r8d,%edx
ffffffff80200b60:	88 dc                	mov    %bl,%ah
ffffffff80200b62:	81 e6 00 00 00 ff    	and    $0xff000000,%esi
ffffffff80200b68:	0f b6 d2             	movzbl %dl,%edx
ffffffff80200b6b:	0f b7 c0             	movzwl %ax,%eax
ffffffff80200b6e:	c1 e2 10             	shl    $0x10,%edx
ffffffff80200b71:	09 d0                	or     %edx,%eax
ffffffff80200b73:	09 f0                	or     %esi,%eax
ffffffff80200b75:	89 04 cd 84 74 20 80 	mov    %eax,-0x7fdf8b7c(,%rcx,8)
ffffffff80200b7c:	5b                   	pop    %rbx
ffffffff80200b7d:	c3                   	ret
ffffffff80200b7e:	66 90                	xchg   %ax,%ax

ffffffff80200b80 <gdt_init>:
ffffffff80200b80:	b8 37 00 00 00       	mov    $0x37,%eax
ffffffff80200b85:	48 83 ec 08          	sub    $0x8,%rsp
ffffffff80200b89:	48 b9 ff ff 00 00 00 	movabs $0xaf9a000000ffff,%rcx
ffffffff80200b90:	9a af 00 
ffffffff80200b93:	48 be ff ff 00 00 00 	movabs $0xaf92000000ffff,%rsi
ffffffff80200b9a:	92 af 00 
ffffffff80200b9d:	66 89 05 c4 68 00 00 	mov    %ax,0x68c4(%rip)        # ffffffff80207468 <gp>
ffffffff80200ba4:	48 c7 c0 00 74 20 80 	mov    $0xffffffff80207400,%rax
ffffffff80200bab:	48 bf ff ff 00 00 00 	movabs $0xaffa000000ffff,%rdi
ffffffff80200bb2:	fa af 00 
ffffffff80200bb5:	48 89 c2             	mov    %rax,%rdx
ffffffff80200bb8:	48 89 0d c9 68 00 00 	mov    %rcx,0x68c9(%rip)        # ffffffff80207488 <gdt+0x8>
ffffffff80200bbf:	48 b9 ff ff 00 00 00 	movabs $0xaff2000000ffff,%rcx
ffffffff80200bc6:	f2 af 00 
ffffffff80200bc9:	48 c1 ea 10          	shr    $0x10,%rdx
ffffffff80200bcd:	66 89 05 d6 68 00 00 	mov    %ax,0x68d6(%rip)        # ffffffff802074aa <gdt+0x2a>
ffffffff80200bd4:	88 15 d2 68 00 00    	mov    %dl,0x68d2(%rip)        # ffffffff802074ac <gdt+0x2c>
ffffffff80200bda:	48 89 c2             	mov    %rax,%rdx
ffffffff80200bdd:	48 c1 ea 18          	shr    $0x18,%rdx
ffffffff80200be1:	48 89 35 a8 68 00 00 	mov    %rsi,0x68a8(%rip)        # ffffffff80207490 <gdt+0x10>
ffffffff80200be8:	31 f6                	xor    %esi,%esi
ffffffff80200bea:	88 15 bf 68 00 00    	mov    %dl,0x68bf(%rip)        # ffffffff802074af <gdt+0x2f>
ffffffff80200bf0:	ba 67 00 00 00       	mov    $0x67,%edx
ffffffff80200bf5:	66 89 15 ac 68 00 00 	mov    %dx,0x68ac(%rip)        # ffffffff802074a8 <gdt+0x28>
ffffffff80200bfc:	48 89 c2             	mov    %rax,%rdx
ffffffff80200bff:	48 c1 e8 30          	shr    $0x30,%rax
ffffffff80200c03:	48 c1 ea 20          	shr    $0x20,%rdx
ffffffff80200c07:	48 89 0d 8a 68 00 00 	mov    %rcx,0x688a(%rip)        # ffffffff80207498 <gdt+0x18>
ffffffff80200c0e:	b9 89 00 00 00       	mov    $0x89,%ecx
ffffffff80200c13:	48 89 3d 86 68 00 00 	mov    %rdi,0x6886(%rip)        # ffffffff802074a0 <gdt+0x20>
ffffffff80200c1a:	48 c7 c7 00 74 20 80 	mov    $0xffffffff80207400,%rdi
ffffffff80200c21:	66 89 15 88 68 00 00 	mov    %dx,0x6888(%rip)        # ffffffff802074b0 <gdt+0x30>
ffffffff80200c28:	ba 68 00 00 00       	mov    $0x68,%edx
ffffffff80200c2d:	66 89 0d 79 68 00 00 	mov    %cx,0x6879(%rip)        # ffffffff802074ad <gdt+0x2d>
ffffffff80200c34:	48 c7 05 2b 68 00 00 	movq   $0xffffffff80207480,0x682b(%rip)        # ffffffff8020746a <gp+0x2>
ffffffff80200c3b:	80 74 20 80 
ffffffff80200c3f:	48 c7 05 36 68 00 00 	movq   $0x0,0x6836(%rip)        # ffffffff80207480 <gdt>
ffffffff80200c46:	00 00 00 00 
ffffffff80200c4a:	66 89 05 61 68 00 00 	mov    %ax,0x6861(%rip)        # ffffffff802074b2 <gdt+0x32>
ffffffff80200c51:	c7 05 59 68 00 00 00 	movl   $0x0,0x6859(%rip)        # ffffffff802074b4 <gdt+0x34>
ffffffff80200c58:	00 00 00 
ffffffff80200c5b:	e8 20 23 00 00       	call   ffffffff80202f80 <memset>
ffffffff80200c60:	be 68 00 00 00       	mov    $0x68,%esi
ffffffff80200c65:	48 c7 c7 68 74 20 80 	mov    $0xffffffff80207468,%rdi
ffffffff80200c6c:	66 89 35 f3 67 00 00 	mov    %si,0x67f3(%rip)        # ffffffff80207466 <tss+0x66>
ffffffff80200c73:	e8 c5 2a 00 00       	call   ffffffff8020373d <gdt_flush>
ffffffff80200c78:	48 83 c4 08          	add    $0x8,%rsp
ffffffff80200c7c:	e9 da 2a 00 00       	jmp    ffffffff8020375b <tss_flush>
ffffffff80200c81:	66 66 2e 0f 1f 84 00 	data16 cs nopw 0x0(%rax,%rax,1)
ffffffff80200c88:	00 00 00 00 
ffffffff80200c8c:	0f 1f 40 00          	nopl   0x0(%rax)

ffffffff80200c90 <tss_set_kernel_stack>:
ffffffff80200c90:	48 89 3d 6d 67 00 00 	mov    %rdi,0x676d(%rip)        # ffffffff80207404 <tss+0x4>
ffffffff80200c97:	c3                   	ret
ffffffff80200c98:	66 2e 0f 1f 84 00 00 	cs nopw 0x0(%rax,%rax,1)
ffffffff80200c9f:	00 00 00 
ffffffff80200ca2:	66 2e 0f 1f 84 00 00 	cs nopw 0x0(%rax,%rax,1)
ffffffff80200ca9:	00 00 00 
ffffffff80200cac:	66 2e 0f 1f 84 00 00 	cs nopw 0x0(%rax,%rax,1)
ffffffff80200cb3:	00 00 00 
ffffffff80200cb6:	66 2e 0f 1f 84 00 00 	cs nopw 0x0(%rax,%rax,1)
ffffffff80200cbd:	00 00 00 

ffffffff80200cc0 <idt_set_descriptor>:
ffffffff80200cc0:	40 0f b6 ff          	movzbl %dil,%edi
ffffffff80200cc4:	b8 08 00 00 00       	mov    $0x8,%eax
ffffffff80200cc9:	48 c1 e7 04          	shl    $0x4,%rdi
ffffffff80200ccd:	88 97 e5 74 20 80    	mov    %dl,-0x7fdf8b1b(%rdi)
ffffffff80200cd3:	48 89 f2             	mov    %rsi,%rdx
ffffffff80200cd6:	66 89 b7 e0 74 20 80 	mov    %si,-0x7fdf8b20(%rdi)
ffffffff80200cdd:	48 c1 ea 10          	shr    $0x10,%rdx
ffffffff80200ce1:	48 c1 ee 20          	shr    $0x20,%rsi
ffffffff80200ce5:	66 89 87 e2 74 20 80 	mov    %ax,-0x7fdf8b1e(%rdi)
ffffffff80200cec:	c6 87 e4 74 20 80 00 	movb   $0x0,-0x7fdf8b1c(%rdi)
ffffffff80200cf3:	66 89 97 e6 74 20 80 	mov    %dx,-0x7fdf8b1a(%rdi)
ffffffff80200cfa:	89 b7 e8 74 20 80    	mov    %esi,-0x7fdf8b18(%rdi)
ffffffff80200d00:	c7 87 ec 74 20 80 00 	movl   $0x0,-0x7fdf8b14(%rdi)
ffffffff80200d07:	00 00 00 
ffffffff80200d0a:	c3                   	ret
ffffffff80200d0b:	0f 1f 44 00 00       	nopl   0x0(%rax,%rax,1)

ffffffff80200d10 <exception_handler>:
ffffffff80200d10:	48 83 bf 80 00 00 00 	cmpq   $0x21,0x80(%rdi)
ffffffff80200d17:	21 
ffffffff80200d18:	0f 84 a2 00 00 00    	je     ffffffff80200dc0 <exception_handler+0xb0>
ffffffff80200d1e:	53                   	push   %rbx
ffffffff80200d1f:	48 8b 87 98 00 00 00 	mov    0x98(%rdi),%rax
ffffffff80200d26:	48 89 fb             	mov    %rdi,%rbx
ffffffff80200d29:	48 83 e8 1b          	sub    $0x1b,%rax
ffffffff80200d2d:	48 a9 f7 ff ff ff    	test   $0xfffffffffffffff7,%rax
ffffffff80200d33:	75 4b                	jne    ffffffff80200d80 <exception_handler+0x70>
ffffffff80200d35:	48 c7 c7 b8 4c 20 80 	mov    $0xffffffff80204cb8,%rdi
ffffffff80200d3c:	e8 df fc ff ff       	call   ffffffff80200a20 <vga_print>
ffffffff80200d41:	48 8b bb 80 00 00 00 	mov    0x80(%rbx),%rdi
ffffffff80200d48:	e8 13 fd ff ff       	call   ffffffff80200a60 <vga_print_hex>
ffffffff80200d4d:	48 c7 c7 07 4b 20 80 	mov    $0xffffffff80204b07,%rdi
ffffffff80200d54:	e8 c7 fc ff ff       	call   ffffffff80200a20 <vga_print>
ffffffff80200d59:	48 8b bb 90 00 00 00 	mov    0x90(%rbx),%rdi
ffffffff80200d60:	e8 fb fc ff ff       	call   ffffffff80200a60 <vga_print_hex>
ffffffff80200d65:	48 c7 c7 7b 4b 20 80 	mov    $0xffffffff80204b7b,%rdi
ffffffff80200d6c:	e8 af fc ff ff       	call   ffffffff80200a20 <vga_print>
ffffffff80200d71:	5b                   	pop    %rbx
ffffffff80200d72:	e9 91 2b 00 00       	jmp    ffffffff80203908 <asm_return_to_kernel>
ffffffff80200d77:	66 0f 1f 84 00 00 00 	nopw   0x0(%rax,%rax,1)
ffffffff80200d7e:	00 00 
ffffffff80200d80:	48 c7 c7 f8 4c 20 80 	mov    $0xffffffff80204cf8,%rdi
ffffffff80200d87:	e8 94 fc ff ff       	call   ffffffff80200a20 <vga_print>
ffffffff80200d8c:	48 8b bb 80 00 00 00 	mov    0x80(%rbx),%rdi
ffffffff80200d93:	e8 c8 fc ff ff       	call   ffffffff80200a60 <vga_print_hex>
ffffffff80200d98:	48 c7 c7 12 4b 20 80 	mov    $0xffffffff80204b12,%rdi
ffffffff80200d9f:	e8 7c fc ff ff       	call   ffffffff80200a20 <vga_print>
ffffffff80200da4:	48 8b bb 90 00 00 00 	mov    0x90(%rbx),%rdi
ffffffff80200dab:	e8 b0 fc ff ff       	call   ffffffff80200a60 <vga_print_hex>
ffffffff80200db0:	48 c7 c7 19 4b 20 80 	mov    $0xffffffff80204b19,%rdi
ffffffff80200db7:	e8 64 fc ff ff       	call   ffffffff80200a20 <vga_print>
ffffffff80200dbc:	fa                   	cli
ffffffff80200dbd:	f4                   	hlt
ffffffff80200dbe:	5b                   	pop    %rbx
ffffffff80200dbf:	c3                   	ret
ffffffff80200dc0:	c3                   	ret
ffffffff80200dc1:	66 66 2e 0f 1f 84 00 	data16 cs nopw 0x0(%rax,%rax,1)
ffffffff80200dc8:	00 00 00 00 
ffffffff80200dcc:	0f 1f 40 00          	nopl   0x0(%rax)

ffffffff80200dd0 <idt_init>:
ffffffff80200dd0:	48 c7 c1 63 37 20 80 	mov    $0xffffffff80203763,%rcx
ffffffff80200dd7:	41 ba ff 0f 00 00    	mov    $0xfff,%r10d
ffffffff80200ddd:	48 81 ec 00 01 00 00 	sub    $0x100,%rsp
ffffffff80200de4:	48 c7 05 d3 66 00 00 	movq   $0xffffffff802074e0,0x66d3(%rip)        # ffffffff802074c2 <idtp+0x2>
ffffffff80200deb:	e0 74 20 80 
ffffffff80200def:	48 89 c8             	mov    %rcx,%rax
ffffffff80200df2:	66 44 89 15 c6 66 00 	mov    %r10w,0x66c6(%rip)        # ffffffff802074c0 <idtp>
ffffffff80200df9:	00 
ffffffff80200dfa:	48 89 ce             	mov    %rcx,%rsi
ffffffff80200dfd:	48 c7 c2 e0 74 20 80 	mov    $0xffffffff802074e0,%rdx
ffffffff80200e04:	48 c1 e8 20          	shr    $0x20,%rax
ffffffff80200e08:	44 0f b7 05 f0 43 00 	movzwl 0x43f0(%rip),%r8d        # ffffffff80205200 <asm_return_to_kernel+0x18f8>
ffffffff80200e0f:	00 
ffffffff80200e10:	48 c1 ee 10          	shr    $0x10,%rsi
ffffffff80200e14:	89 c7                	mov    %eax,%edi
ffffffff80200e16:	48 89 d0             	mov    %rdx,%rax
ffffffff80200e19:	66 66 2e 0f 1f 84 00 	data16 cs nopw 0x0(%rax,%rax,1)
ffffffff80200e20:	00 00 00 00 
ffffffff80200e24:	66 66 2e 0f 1f 84 00 	data16 cs nopw 0x0(%rax,%rax,1)
ffffffff80200e2b:	00 00 00 00 
ffffffff80200e2f:	66 66 2e 0f 1f 84 00 	data16 cs nopw 0x0(%rax,%rax,1)
ffffffff80200e36:	00 00 00 00 
ffffffff80200e3a:	66 0f 1f 44 00 00    	nopw   0x0(%rax,%rax,1)
ffffffff80200e40:	41 b9 08 00 00 00    	mov    $0x8,%r9d
ffffffff80200e46:	66 89 08             	mov    %cx,(%rax)
ffffffff80200e49:	48 83 c0 10          	add    $0x10,%rax
ffffffff80200e4d:	66 44 89 48 f2       	mov    %r9w,-0xe(%rax)
ffffffff80200e52:	66 44 89 40 f4       	mov    %r8w,-0xc(%rax)
ffffffff80200e57:	66 89 70 f6          	mov    %si,-0xa(%rax)
ffffffff80200e5b:	89 78 f8             	mov    %edi,-0x8(%rax)
ffffffff80200e5e:	c7 40 fc 00 00 00 00 	movl   $0x0,-0x4(%rax)
ffffffff80200e65:	48 3d e0 84 20 80    	cmp    $0xffffffff802084e0,%rax
ffffffff80200e6b:	75 d3                	jne    ffffffff80200e40 <idt_init+0x70>
ffffffff80200e6d:	48 89 e7             	mov    %rsp,%rdi
ffffffff80200e70:	48 c7 c6 00 51 20 80 	mov    $0xffffffff80205100,%rsi
ffffffff80200e77:	b9 20 00 00 00       	mov    $0x20,%ecx
ffffffff80200e7c:	f3 48 a5             	rep movsq %ds:(%rsi),%es:(%rdi)
ffffffff80200e7f:	48 89 e1             	mov    %rsp,%rcx
ffffffff80200e82:	48 c7 c7 e0 76 20 80 	mov    $0xffffffff802076e0,%rdi
ffffffff80200e89:	66 66 2e 0f 1f 84 00 	data16 cs nopw 0x0(%rax,%rax,1)
ffffffff80200e90:	00 00 00 00 
ffffffff80200e94:	66 66 2e 0f 1f 84 00 	data16 cs nopw 0x0(%rax,%rax,1)
ffffffff80200e9b:	00 00 00 00 
ffffffff80200e9f:	66 66 2e 0f 1f 84 00 	data16 cs nopw 0x0(%rax,%rax,1)
ffffffff80200ea6:	00 00 00 00 
ffffffff80200eaa:	66 66 2e 0f 1f 84 00 	data16 cs nopw 0x0(%rax,%rax,1)
ffffffff80200eb1:	00 00 00 00 
ffffffff80200eb5:	66 66 2e 0f 1f 84 00 	data16 cs nopw 0x0(%rax,%rax,1)
ffffffff80200ebc:	00 00 00 00 
ffffffff80200ec0:	48 8b 01             	mov    (%rcx),%rax
ffffffff80200ec3:	be 08 00 00 00       	mov    $0x8,%esi
ffffffff80200ec8:	48 83 c2 10          	add    $0x10,%rdx
ffffffff80200ecc:	48 83 c1 08          	add    $0x8,%rcx
ffffffff80200ed0:	66 89 72 f2          	mov    %si,-0xe(%rdx)
ffffffff80200ed4:	48 89 c6             	mov    %rax,%rsi
ffffffff80200ed7:	66 89 42 f0          	mov    %ax,-0x10(%rdx)
ffffffff80200edb:	48 c1 e8 20          	shr    $0x20,%rax
ffffffff80200edf:	48 c1 ee 10          	shr    $0x10,%rsi
ffffffff80200ee3:	66 44 89 42 f4       	mov    %r8w,-0xc(%rdx)
ffffffff80200ee8:	66 89 72 f6          	mov    %si,-0xa(%rdx)
ffffffff80200eec:	89 42 f8             	mov    %eax,-0x8(%rdx)
ffffffff80200eef:	c7 42 fc 00 00 00 00 	movl   $0x0,-0x4(%rdx)
ffffffff80200ef6:	48 39 d7             	cmp    %rdx,%rdi
ffffffff80200ef9:	75 c5                	jne    ffffffff80200ec0 <idt_init+0xf0>
ffffffff80200efb:	48 c7 c0 82 38 20 80 	mov    $0xffffffff80203882,%rax
ffffffff80200f02:	c7 05 e6 67 00 00 08 	movl   $0x8e000008,0x67e6(%rip)        # ffffffff802076f2 <idt+0x212>
ffffffff80200f09:	00 00 8e 
ffffffff80200f0c:	48 89 c2             	mov    %rax,%rdx
ffffffff80200f0f:	66 89 05 da 67 00 00 	mov    %ax,0x67da(%rip)        # ffffffff802076f0 <idt+0x210>
ffffffff80200f16:	48 c1 e8 20          	shr    $0x20,%rax
ffffffff80200f1a:	48 c1 ea 10          	shr    $0x10,%rdx
ffffffff80200f1e:	89 05 d4 67 00 00    	mov    %eax,0x67d4(%rip)        # ffffffff802076f8 <idt+0x218>
ffffffff80200f24:	66 89 15 cb 67 00 00 	mov    %dx,0x67cb(%rip)        # ffffffff802076f6 <idt+0x216>
ffffffff80200f2b:	c7 05 c7 67 00 00 00 	movl   $0x0,0x67c7(%rip)        # ffffffff802076fc <idt+0x21c>
ffffffff80200f32:	00 00 00 
ffffffff80200f35:	0f 01 1d 84 65 00 00 	lidt   0x6584(%rip)        # ffffffff802074c0 <idtp>
ffffffff80200f3c:	fb                   	sti
ffffffff80200f3d:	48 81 c4 00 01 00 00 	add    $0x100,%rsp
ffffffff80200f44:	c3                   	ret
ffffffff80200f45:	66 2e 0f 1f 84 00 00 	cs nopw 0x0(%rax,%rax,1)
ffffffff80200f4c:	00 00 00 
ffffffff80200f4f:	90                   	nop

ffffffff80200f50 <pic_remap>:
ffffffff80200f50:	b8 11 00 00 00       	mov    $0x11,%eax
ffffffff80200f55:	e6 20                	out    %al,$0x20
ffffffff80200f57:	e6 a0                	out    %al,$0xa0
ffffffff80200f59:	b8 20 00 00 00       	mov    $0x20,%eax
ffffffff80200f5e:	e6 21                	out    %al,$0x21
ffffffff80200f60:	b8 28 00 00 00       	mov    $0x28,%eax
ffffffff80200f65:	e6 a1                	out    %al,$0xa1
ffffffff80200f67:	b8 04 00 00 00       	mov    $0x4,%eax
ffffffff80200f6c:	e6 21                	out    %al,$0x21
ffffffff80200f6e:	b8 02 00 00 00       	mov    $0x2,%eax
ffffffff80200f73:	e6 a1                	out    %al,$0xa1
ffffffff80200f75:	b8 01 00 00 00       	mov    $0x1,%eax
ffffffff80200f7a:	e6 21                	out    %al,$0x21
ffffffff80200f7c:	e6 a1                	out    %al,$0xa1
ffffffff80200f7e:	b8 fd ff ff ff       	mov    $0xfffffffd,%eax
ffffffff80200f83:	e6 21                	out    %al,$0x21
ffffffff80200f85:	b8 ff ff ff ff       	mov    $0xffffffff,%eax
ffffffff80200f8a:	e6 a1                	out    %al,$0xa1
ffffffff80200f8c:	c3                   	ret
ffffffff80200f8d:	0f 1f 00             	nopl   (%rax)

ffffffff80200f90 <keyboard_handler>:
ffffffff80200f90:	e4 64                	in     $0x64,%al
ffffffff80200f92:	a8 01                	test   $0x1,%al
ffffffff80200f94:	74 4e                	je     ffffffff80200fe4 <keyboard_handler+0x54>
ffffffff80200f96:	e4 60                	in     $0x60,%al
ffffffff80200f98:	3c e0                	cmp    $0xe0,%al
ffffffff80200f9a:	74 54                	je     ffffffff80200ff0 <keyboard_handler+0x60>
ffffffff80200f9c:	3c 2a                	cmp    $0x2a,%al
ffffffff80200f9e:	74 60                	je     ffffffff80201000 <keyboard_handler+0x70>
ffffffff80200fa0:	3c 36                	cmp    $0x36,%al
ffffffff80200fa2:	74 5c                	je     ffffffff80201000 <keyboard_handler+0x70>
ffffffff80200fa4:	3c aa                	cmp    $0xaa,%al
ffffffff80200fa6:	74 68                	je     ffffffff80201010 <keyboard_handler+0x80>
ffffffff80200fa8:	3c b6                	cmp    $0xb6,%al
ffffffff80200faa:	74 64                	je     ffffffff80201010 <keyboard_handler+0x80>
ffffffff80200fac:	8b 15 4e 76 00 00    	mov    0x764e(%rip),%edx        # ffffffff80208600 <e0_pressed>
ffffffff80200fb2:	84 c0                	test   %al,%al
ffffffff80200fb4:	78 6a                	js     ffffffff80201020 <keyboard_handler+0x90>
ffffffff80200fb6:	85 d2                	test   %edx,%edx
ffffffff80200fb8:	74 76                	je     ffffffff80201030 <keyboard_handler+0xa0>
ffffffff80200fba:	3c 48                	cmp    $0x48,%al
ffffffff80200fbc:	0f 84 b6 00 00 00    	je     ffffffff80201078 <keyboard_handler+0xe8>
ffffffff80200fc2:	3c 50                	cmp    $0x50,%al
ffffffff80200fc4:	0f 84 c8 00 00 00    	je     ffffffff80201092 <keyboard_handler+0x102>
ffffffff80200fca:	3c 4b                	cmp    $0x4b,%al
ffffffff80200fcc:	0f 84 d1 00 00 00    	je     ffffffff802010a3 <keyboard_handler+0x113>
ffffffff80200fd2:	3c 4d                	cmp    $0x4d,%al
ffffffff80200fd4:	0f 84 da 00 00 00    	je     ffffffff802010b4 <keyboard_handler+0x124>
ffffffff80200fda:	c7 05 1c 76 00 00 00 	movl   $0x0,0x761c(%rip)        # ffffffff80208600 <e0_pressed>
ffffffff80200fe1:	00 00 00 
ffffffff80200fe4:	b8 20 00 00 00       	mov    $0x20,%eax
ffffffff80200fe9:	e6 20                	out    %al,$0x20
ffffffff80200feb:	c3                   	ret
ffffffff80200fec:	0f 1f 40 00          	nopl   0x0(%rax)
ffffffff80200ff0:	c7 05 06 76 00 00 01 	movl   $0x1,0x7606(%rip)        # ffffffff80208600 <e0_pressed>
ffffffff80200ff7:	00 00 00 
ffffffff80200ffa:	eb e8                	jmp    ffffffff80200fe4 <keyboard_handler+0x54>
ffffffff80200ffc:	0f 1f 40 00          	nopl   0x0(%rax)
ffffffff80201000:	c7 05 fa 75 00 00 01 	movl   $0x1,0x75fa(%rip)        # ffffffff80208604 <shift_pressed>
ffffffff80201007:	00 00 00 
ffffffff8020100a:	eb d8                	jmp    ffffffff80200fe4 <keyboard_handler+0x54>
ffffffff8020100c:	0f 1f 40 00          	nopl   0x0(%rax)
ffffffff80201010:	c7 05 ea 75 00 00 00 	movl   $0x0,0x75ea(%rip)        # ffffffff80208604 <shift_pressed>
ffffffff80201017:	00 00 00 
ffffffff8020101a:	eb c8                	jmp    ffffffff80200fe4 <keyboard_handler+0x54>
ffffffff8020101c:	0f 1f 40 00          	nopl   0x0(%rax)
ffffffff80201020:	85 d2                	test   %edx,%edx
ffffffff80201022:	75 b6                	jne    ffffffff80200fda <keyboard_handler+0x4a>
ffffffff80201024:	eb be                	jmp    ffffffff80200fe4 <keyboard_handler+0x54>
ffffffff80201026:	66 2e 0f 1f 84 00 00 	cs nopw 0x0(%rax,%rax,1)
ffffffff8020102d:	00 00 00 
ffffffff80201030:	3c 39                	cmp    $0x39,%al
ffffffff80201032:	77 b0                	ja     ffffffff80200fe4 <keyboard_handler+0x54>
ffffffff80201034:	8b 15 ca 75 00 00    	mov    0x75ca(%rip),%edx        # ffffffff80208604 <shift_pressed>
ffffffff8020103a:	0f b6 c0             	movzbl %al,%eax
ffffffff8020103d:	85 d2                	test   %edx,%edx
ffffffff8020103f:	74 48                	je     ffffffff80201089 <keyboard_handler+0xf9>
ffffffff80201041:	0f b6 90 20 52 20 80 	movzbl -0x7fdfade0(%rax),%edx
ffffffff80201048:	84 d2                	test   %dl,%dl
ffffffff8020104a:	74 98                	je     ffffffff80200fe4 <keyboard_handler+0x54>
ffffffff8020104c:	48 63 05 91 74 00 00 	movslq 0x7491(%rip),%rax        # ffffffff802084e4 <kbd_head>
ffffffff80201053:	88 90 00 85 20 80    	mov    %dl,-0x7fdf7b00(%rax)
ffffffff80201059:	8b 05 85 74 00 00    	mov    0x7485(%rip),%eax        # ffffffff802084e4 <kbd_head>
ffffffff8020105f:	83 c0 01             	add    $0x1,%eax
ffffffff80201062:	99                   	cltd
ffffffff80201063:	c1 ea 18             	shr    $0x18,%edx
ffffffff80201066:	01 d0                	add    %edx,%eax
ffffffff80201068:	0f b6 c0             	movzbl %al,%eax
ffffffff8020106b:	29 d0                	sub    %edx,%eax
ffffffff8020106d:	89 05 71 74 00 00    	mov    %eax,0x7471(%rip)        # ffffffff802084e4 <kbd_head>
ffffffff80201073:	e9 6c ff ff ff       	jmp    ffffffff80200fe4 <keyboard_handler+0x54>
ffffffff80201078:	c7 05 7e 75 00 00 00 	movl   $0x0,0x757e(%rip)        # ffffffff80208600 <e0_pressed>
ffffffff8020107f:	00 00 00 
ffffffff80201082:	ba 80 ff ff ff       	mov    $0xffffff80,%edx
ffffffff80201087:	eb c3                	jmp    ffffffff8020104c <keyboard_handler+0xbc>
ffffffff80201089:	0f b6 90 60 52 20 80 	movzbl -0x7fdfada0(%rax),%edx
ffffffff80201090:	eb b6                	jmp    ffffffff80201048 <keyboard_handler+0xb8>
ffffffff80201092:	c7 05 64 75 00 00 00 	movl   $0x0,0x7564(%rip)        # ffffffff80208600 <e0_pressed>
ffffffff80201099:	00 00 00 
ffffffff8020109c:	ba 81 ff ff ff       	mov    $0xffffff81,%edx
ffffffff802010a1:	eb a9                	jmp    ffffffff8020104c <keyboard_handler+0xbc>
ffffffff802010a3:	c7 05 53 75 00 00 00 	movl   $0x0,0x7553(%rip)        # ffffffff80208600 <e0_pressed>
ffffffff802010aa:	00 00 00 
ffffffff802010ad:	ba 82 ff ff ff       	mov    $0xffffff82,%edx
ffffffff802010b2:	eb 98                	jmp    ffffffff8020104c <keyboard_handler+0xbc>
ffffffff802010b4:	c7 05 42 75 00 00 00 	movl   $0x0,0x7542(%rip)        # ffffffff80208600 <e0_pressed>
ffffffff802010bb:	00 00 00 
ffffffff802010be:	ba 83 ff ff ff       	mov    $0xffffff83,%edx
ffffffff802010c3:	eb 87                	jmp    ffffffff8020104c <keyboard_handler+0xbc>
ffffffff802010c5:	66 66 2e 0f 1f 84 00 	data16 cs nopw 0x0(%rax,%rax,1)
ffffffff802010cc:	00 00 00 00 

ffffffff802010d0 <keyboard_getchar>:
ffffffff802010d0:	eb 07                	jmp    ffffffff802010d9 <keyboard_getchar+0x9>
ffffffff802010d2:	66 0f 1f 44 00 00    	nopw   0x0(%rax,%rax,1)
ffffffff802010d8:	f4                   	hlt
ffffffff802010d9:	8b 15 05 74 00 00    	mov    0x7405(%rip),%edx        # ffffffff802084e4 <kbd_head>
ffffffff802010df:	8b 05 fb 73 00 00    	mov    0x73fb(%rip),%eax        # ffffffff802084e0 <kbd_tail>
ffffffff802010e5:	39 c2                	cmp    %eax,%edx
ffffffff802010e7:	74 ef                	je     ffffffff802010d8 <keyboard_getchar+0x8>
ffffffff802010e9:	48 63 05 f0 73 00 00 	movslq 0x73f0(%rip),%rax        # ffffffff802084e0 <kbd_tail>
ffffffff802010f0:	0f b6 88 00 85 20 80 	movzbl -0x7fdf7b00(%rax),%ecx
ffffffff802010f7:	8b 05 e3 73 00 00    	mov    0x73e3(%rip),%eax        # ffffffff802084e0 <kbd_tail>
ffffffff802010fd:	83 c0 01             	add    $0x1,%eax
ffffffff80201100:	99                   	cltd
ffffffff80201101:	c1 ea 18             	shr    $0x18,%edx
ffffffff80201104:	01 d0                	add    %edx,%eax
ffffffff80201106:	0f b6 c0             	movzbl %al,%eax
ffffffff80201109:	29 d0                	sub    %edx,%eax
ffffffff8020110b:	89 05 cf 73 00 00    	mov    %eax,0x73cf(%rip)        # ffffffff802084e0 <kbd_tail>
ffffffff80201111:	89 c8                	mov    %ecx,%eax
ffffffff80201113:	c3                   	ret
ffffffff80201114:	66 2e 0f 1f 84 00 00 	cs nopw 0x0(%rax,%rax,1)
ffffffff8020111b:	00 00 00 
ffffffff8020111e:	66 2e 0f 1f 84 00 00 	cs nopw 0x0(%rax,%rax,1)
ffffffff80201125:	00 00 00 
ffffffff80201128:	66 2e 0f 1f 84 00 00 	cs nopw 0x0(%rax,%rax,1)
ffffffff8020112f:	00 00 00 
ffffffff80201132:	66 2e 0f 1f 84 00 00 	cs nopw 0x0(%rax,%rax,1)
ffffffff80201139:	00 00 00 
ffffffff8020113c:	0f 1f 40 00          	nopl   0x0(%rax)

ffffffff80201140 <pmm_init>:
ffffffff80201140:	48 8b 05 81 5d 00 00 	mov    0x5d81(%rip),%rax        # ffffffff80206ec8 <hhdm_request+0x28>
ffffffff80201147:	53                   	push   %rbx
ffffffff80201148:	48 85 c0             	test   %rax,%rax
ffffffff8020114b:	0f 84 2e 02 00 00    	je     ffffffff8020137f <pmm_init+0x23f>
ffffffff80201151:	48 8b 05 70 5d 00 00 	mov    0x5d70(%rip),%rax        # ffffffff80206ec8 <hhdm_request+0x28>
ffffffff80201158:	4c 8b 15 a9 5d 00 00 	mov    0x5da9(%rip),%r10        # ffffffff80206f08 <memmap_request+0x28>
ffffffff8020115f:	4c 8b 40 08          	mov    0x8(%rax),%r8
ffffffff80201163:	4c 89 05 9e 74 00 00 	mov    %r8,0x749e(%rip)        # ffffffff80208608 <hhdm_offset>
ffffffff8020116a:	4d 85 d2             	test   %r10,%r10
ffffffff8020116d:	0f 84 20 02 00 00    	je     ffffffff80201393 <pmm_init+0x253>
ffffffff80201173:	4d 8b 4a 08          	mov    0x8(%r10),%r9
ffffffff80201177:	4d 85 c9             	test   %r9,%r9
ffffffff8020117a:	0f 84 23 02 00 00    	je     ffffffff802013a3 <pmm_init+0x263>
ffffffff80201180:	49 8b 7a 10          	mov    0x10(%r10),%rdi
ffffffff80201184:	31 f6                	xor    %esi,%esi
ffffffff80201186:	48 89 f8             	mov    %rdi,%rax
ffffffff80201189:	4e 8d 1c cf          	lea    (%rdi,%r9,8),%r11
ffffffff8020118d:	66 66 2e 0f 1f 84 00 	data16 cs nopw 0x0(%rax,%rax,1)
ffffffff80201194:	00 00 00 00 
ffffffff80201198:	66 66 2e 0f 1f 84 00 	data16 cs nopw 0x0(%rax,%rax,1)
ffffffff8020119f:	00 00 00 00 
ffffffff802011a3:	66 66 2e 0f 1f 84 00 	data16 cs nopw 0x0(%rax,%rax,1)
ffffffff802011aa:	00 00 00 00 
ffffffff802011ae:	66 66 2e 0f 1f 84 00 	data16 cs nopw 0x0(%rax,%rax,1)
ffffffff802011b5:	00 00 00 00 
ffffffff802011b9:	0f 1f 80 00 00 00 00 	nopl   0x0(%rax)
ffffffff802011c0:	48 8b 10             	mov    (%rax),%rdx
ffffffff802011c3:	48 83 7a 10 00       	cmpq   $0x0,0x10(%rdx)
ffffffff802011c8:	75 0e                	jne    ffffffff802011d8 <pmm_init+0x98>
ffffffff802011ca:	48 8b 0a             	mov    (%rdx),%rcx
ffffffff802011cd:	48 03 4a 08          	add    0x8(%rdx),%rcx
ffffffff802011d1:	48 39 ce             	cmp    %rcx,%rsi
ffffffff802011d4:	48 0f 42 f1          	cmovb  %rcx,%rsi
ffffffff802011d8:	48 83 c0 08          	add    $0x8,%rax
ffffffff802011dc:	49 39 c3             	cmp    %rax,%r11
ffffffff802011df:	75 df                	jne    ffffffff802011c0 <pmm_init+0x80>
ffffffff802011e1:	48 89 f0             	mov    %rsi,%rax
ffffffff802011e4:	48 c1 e8 0c          	shr    $0xc,%rax
ffffffff802011e8:	48 89 05 29 74 00 00 	mov    %rax,0x7429(%rip)        # ffffffff80208618 <pmm_highest_page>
ffffffff802011ef:	48 89 f0             	mov    %rsi,%rax
ffffffff802011f2:	48 c1 e8 0f          	shr    $0xf,%rax
ffffffff802011f6:	48 81 fe ff 7f 00 00 	cmp    $0x7fff,%rsi
ffffffff802011fd:	be 01 00 00 00       	mov    $0x1,%esi
ffffffff80201202:	48 0f 47 f0          	cmova  %rax,%rsi
ffffffff80201206:	31 c0                	xor    %eax,%eax
ffffffff80201208:	0f 1f 84 00 00 00 00 	nopl   0x0(%rax,%rax,1)
ffffffff8020120f:	00 
ffffffff80201210:	48 8b 14 c7          	mov    (%rdi,%rax,8),%rdx
ffffffff80201214:	48 83 7a 10 00       	cmpq   $0x0,0x10(%rdx)
ffffffff80201219:	75 0d                	jne    ffffffff80201228 <pmm_init+0xe8>
ffffffff8020121b:	48 8b 4a 08          	mov    0x8(%rdx),%rcx
ffffffff8020121f:	48 39 f1             	cmp    %rsi,%rcx
ffffffff80201222:	0f 83 38 01 00 00    	jae    ffffffff80201360 <pmm_init+0x220>
ffffffff80201228:	48 83 c0 01          	add    $0x1,%rax
ffffffff8020122c:	4c 39 c8             	cmp    %r9,%rax
ffffffff8020122f:	75 df                	jne    ffffffff80201210 <pmm_init+0xd0>
ffffffff80201231:	4c 8b 05 f0 73 00 00 	mov    0x73f0(%rip),%r8        # ffffffff80208628 <pmm_bitmap>
ffffffff80201238:	49 8d 14 30          	lea    (%r8,%rsi,1),%rdx
ffffffff8020123c:	83 e6 01             	and    $0x1,%esi
ffffffff8020123f:	4c 89 c0             	mov    %r8,%rax
ffffffff80201242:	74 1c                	je     ffffffff80201260 <pmm_init+0x120>
ffffffff80201244:	49 8d 40 01          	lea    0x1(%r8),%rax
ffffffff80201248:	41 c6 00 ff          	movb   $0xff,(%r8)
ffffffff8020124c:	48 39 d0             	cmp    %rdx,%rax
ffffffff8020124f:	74 1f                	je     ffffffff80201270 <pmm_init+0x130>
ffffffff80201251:	66 66 2e 0f 1f 84 00 	data16 cs nopw 0x0(%rax,%rax,1)
ffffffff80201258:	00 00 00 00 
ffffffff8020125c:	0f 1f 40 00          	nopl   0x0(%rax)
ffffffff80201260:	c6 00 ff             	movb   $0xff,(%rax)
ffffffff80201263:	48 83 c0 02          	add    $0x2,%rax
ffffffff80201267:	c6 40 ff ff          	movb   $0xff,-0x1(%rax)
ffffffff8020126b:	48 39 d0             	cmp    %rdx,%rax
ffffffff8020126e:	75 f0                	jne    ffffffff80201260 <pmm_init+0x120>
ffffffff80201270:	49 83 7a 08 00       	cmpq   $0x0,0x8(%r10)
ffffffff80201275:	0f 84 d9 00 00 00    	je     ffffffff80201354 <pmm_init+0x214>
ffffffff8020127b:	48 8b 1d 9e 73 00 00 	mov    0x739e(%rip),%rbx        # ffffffff80208620 <pmm_free_memory>
ffffffff80201282:	31 d2                	xor    %edx,%edx
ffffffff80201284:	45 31 c9             	xor    %r9d,%r9d
ffffffff80201287:	41 bb 01 00 00 00    	mov    $0x1,%r11d
ffffffff8020128d:	eb 1f                	jmp    ffffffff802012ae <pmm_init+0x16e>
ffffffff8020128f:	66 66 2e 0f 1f 84 00 	data16 cs nopw 0x0(%rax,%rax,1)
ffffffff80201296:	00 00 00 00 
ffffffff8020129a:	66 0f 1f 44 00 00    	nopw   0x0(%rax,%rax,1)
ffffffff802012a0:	49 83 c1 01          	add    $0x1,%r9
ffffffff802012a4:	4d 3b 4a 08          	cmp    0x8(%r10),%r9
ffffffff802012a8:	0f 83 9b 00 00 00    	jae    ffffffff80201349 <pmm_init+0x209>
ffffffff802012ae:	49 8b 42 10          	mov    0x10(%r10),%rax
ffffffff802012b2:	4a 8b 34 c8          	mov    (%rax,%r9,8),%rsi
ffffffff802012b6:	48 8b 46 10          	mov    0x10(%rsi),%rax
ffffffff802012ba:	48 85 c0             	test   %rax,%rax
ffffffff802012bd:	75 e1                	jne    ffffffff802012a0 <pmm_init+0x160>
ffffffff802012bf:	48 83 7e 08 00       	cmpq   $0x0,0x8(%rsi)
ffffffff802012c4:	74 da                	je     ffffffff802012a0 <pmm_init+0x160>
ffffffff802012c6:	66 66 2e 0f 1f 84 00 	data16 cs nopw 0x0(%rax,%rax,1)
ffffffff802012cd:	00 00 00 00 
ffffffff802012d1:	66 66 2e 0f 1f 84 00 	data16 cs nopw 0x0(%rax,%rax,1)
ffffffff802012d8:	00 00 00 00 
ffffffff802012dc:	66 66 2e 0f 1f 84 00 	data16 cs nopw 0x0(%rax,%rax,1)
ffffffff802012e3:	00 00 00 00 
ffffffff802012e7:	66 66 2e 0f 1f 84 00 	data16 cs nopw 0x0(%rax,%rax,1)
ffffffff802012ee:	00 00 00 00 
ffffffff802012f2:	66 66 2e 0f 1f 84 00 	data16 cs nopw 0x0(%rax,%rax,1)
ffffffff802012f9:	00 00 00 00 
ffffffff802012fd:	0f 1f 00             	nopl   (%rax)
ffffffff80201300:	48 8b 0e             	mov    (%rsi),%rcx
ffffffff80201303:	44 89 da             	mov    %r11d,%edx
ffffffff80201306:	48 01 c1             	add    %rax,%rcx
ffffffff80201309:	48 89 cf             	mov    %rcx,%rdi
ffffffff8020130c:	48 c1 e9 0c          	shr    $0xc,%rcx
ffffffff80201310:	83 e1 07             	and    $0x7,%ecx
ffffffff80201313:	48 c1 ef 0f          	shr    $0xf,%rdi
ffffffff80201317:	d3 e2                	shl    %cl,%edx
ffffffff80201319:	f7 d2                	not    %edx
ffffffff8020131b:	41 20 14 38          	and    %dl,(%r8,%rdi,1)
ffffffff8020131f:	48 89 c2             	mov    %rax,%rdx
ffffffff80201322:	48 05 00 10 00 00    	add    $0x1000,%rax
ffffffff80201328:	48 3b 46 08          	cmp    0x8(%rsi),%rax
ffffffff8020132c:	72 d2                	jb     ffffffff80201300 <pmm_init+0x1c0>
ffffffff8020132e:	48 8d 9c 1a 00 10 00 	lea    0x1000(%rdx,%rbx,1),%rbx
ffffffff80201335:	00 
ffffffff80201336:	49 83 c1 01          	add    $0x1,%r9
ffffffff8020133a:	ba 01 00 00 00       	mov    $0x1,%edx
ffffffff8020133f:	4d 3b 4a 08          	cmp    0x8(%r10),%r9
ffffffff80201343:	0f 82 65 ff ff ff    	jb     ffffffff802012ae <pmm_init+0x16e>
ffffffff80201349:	84 d2                	test   %dl,%dl
ffffffff8020134b:	74 07                	je     ffffffff80201354 <pmm_init+0x214>
ffffffff8020134d:	48 89 1d cc 72 00 00 	mov    %rbx,0x72cc(%rip)        # ffffffff80208620 <pmm_free_memory>
ffffffff80201354:	5b                   	pop    %rbx
ffffffff80201355:	c3                   	ret
ffffffff80201356:	66 2e 0f 1f 84 00 00 	cs nopw 0x0(%rax,%rax,1)
ffffffff8020135d:	00 00 00 
ffffffff80201360:	48 8b 02             	mov    (%rdx),%rax
ffffffff80201363:	48 29 f1             	sub    %rsi,%rcx
ffffffff80201366:	48 89 4a 08          	mov    %rcx,0x8(%rdx)
ffffffff8020136a:	49 01 c0             	add    %rax,%r8
ffffffff8020136d:	48 01 f0             	add    %rsi,%rax
ffffffff80201370:	4c 89 05 b1 72 00 00 	mov    %r8,0x72b1(%rip)        # ffffffff80208628 <pmm_bitmap>
ffffffff80201377:	48 89 02             	mov    %rax,(%rdx)
ffffffff8020137a:	e9 b9 fe ff ff       	jmp    ffffffff80201238 <pmm_init+0xf8>
ffffffff8020137f:	48 c7 c7 30 4d 20 80 	mov    $0xffffffff80204d30,%rdi
ffffffff80201386:	e8 95 f6 ff ff       	call   ffffffff80200a20 <vga_print>
ffffffff8020138b:	0f 1f 44 00 00       	nopl   0x0(%rax,%rax,1)
ffffffff80201390:	f4                   	hlt
ffffffff80201391:	eb fd                	jmp    ffffffff80201390 <pmm_init+0x250>
ffffffff80201393:	48 c7 c7 58 4d 20 80 	mov    $0xffffffff80204d58,%rdi
ffffffff8020139a:	e8 81 f6 ff ff       	call   ffffffff80200a20 <vga_print>
ffffffff8020139f:	90                   	nop
ffffffff802013a0:	f4                   	hlt
ffffffff802013a1:	eb fd                	jmp    ffffffff802013a0 <pmm_init+0x260>
ffffffff802013a3:	48 c7 05 6a 72 00 00 	movq   $0x0,0x726a(%rip)        # ffffffff80208618 <pmm_highest_page>
ffffffff802013aa:	00 00 00 00 
ffffffff802013ae:	4c 8b 05 73 72 00 00 	mov    0x7273(%rip),%r8        # ffffffff80208628 <pmm_bitmap>
ffffffff802013b5:	be 01 00 00 00       	mov    $0x1,%esi
ffffffff802013ba:	e9 79 fe ff ff       	jmp    ffffffff80201238 <pmm_init+0xf8>
ffffffff802013bf:	90                   	nop

ffffffff802013c0 <pmm_alloc_page>:
ffffffff802013c0:	4c 8b 15 49 72 00 00 	mov    0x7249(%rip),%r10        # ffffffff80208610 <pmm_last_allocated_index>
ffffffff802013c7:	4c 8b 05 4a 72 00 00 	mov    0x724a(%rip),%r8        # ffffffff80208618 <pmm_highest_page>
ffffffff802013ce:	4d 39 c2             	cmp    %r8,%r10
ffffffff802013d1:	73 75                	jae    ffffffff80201448 <pmm_alloc_page+0x88>
ffffffff802013d3:	4c 8b 0d 4e 72 00 00 	mov    0x724e(%rip),%r9        # ffffffff80208628 <pmm_bitmap>
ffffffff802013da:	4c 89 d0             	mov    %r10,%rax
ffffffff802013dd:	eb 2a                	jmp    ffffffff80201409 <pmm_alloc_page+0x49>
ffffffff802013df:	66 66 2e 0f 1f 84 00 	data16 cs nopw 0x0(%rax,%rax,1)
ffffffff802013e6:	00 00 00 00 
ffffffff802013ea:	66 66 2e 0f 1f 84 00 	data16 cs nopw 0x0(%rax,%rax,1)
ffffffff802013f1:	00 00 00 00 
ffffffff802013f5:	66 66 2e 0f 1f 84 00 	data16 cs nopw 0x0(%rax,%rax,1)
ffffffff802013fc:	00 00 00 00 
ffffffff80201400:	48 83 c0 01          	add    $0x1,%rax
ffffffff80201404:	4c 39 c0             	cmp    %r8,%rax
ffffffff80201407:	74 3f                	je     ffffffff80201448 <pmm_alloc_page+0x88>
ffffffff80201409:	48 89 c2             	mov    %rax,%rdx
ffffffff8020140c:	89 c1                	mov    %eax,%ecx
ffffffff8020140e:	48 c1 ea 03          	shr    $0x3,%rdx
ffffffff80201412:	83 e1 07             	and    $0x7,%ecx
ffffffff80201415:	4c 01 ca             	add    %r9,%rdx
ffffffff80201418:	0f b6 3a             	movzbl (%rdx),%edi
ffffffff8020141b:	0f a3 cf             	bt     %ecx,%edi
ffffffff8020141e:	89 fe                	mov    %edi,%esi
ffffffff80201420:	72 de                	jb     ffffffff80201400 <pmm_alloc_page+0x40>
ffffffff80201422:	bf 01 00 00 00       	mov    $0x1,%edi
ffffffff80201427:	d3 e7                	shl    %cl,%edi
ffffffff80201429:	09 fe                	or     %edi,%esi
ffffffff8020142b:	40 88 32             	mov    %sil,(%rdx)
ffffffff8020142e:	48 89 05 db 71 00 00 	mov    %rax,0x71db(%rip)        # ffffffff80208610 <pmm_last_allocated_index>
ffffffff80201435:	48 c1 e0 0c          	shl    $0xc,%rax
ffffffff80201439:	48 81 2d dc 71 00 00 	subq   $0x1000,0x71dc(%rip)        # ffffffff80208620 <pmm_free_memory>
ffffffff80201440:	00 10 00 00 
ffffffff80201444:	c3                   	ret
ffffffff80201445:	0f 1f 00             	nopl   (%rax)
ffffffff80201448:	4d 85 d2             	test   %r10,%r10
ffffffff8020144b:	74 63                	je     ffffffff802014b0 <pmm_alloc_page+0xf0>
ffffffff8020144d:	4c 8b 05 d4 71 00 00 	mov    0x71d4(%rip),%r8        # ffffffff80208628 <pmm_bitmap>
ffffffff80201454:	31 c0                	xor    %eax,%eax
ffffffff80201456:	eb 31                	jmp    ffffffff80201489 <pmm_alloc_page+0xc9>
ffffffff80201458:	66 66 2e 0f 1f 84 00 	data16 cs nopw 0x0(%rax,%rax,1)
ffffffff8020145f:	00 00 00 00 
ffffffff80201463:	66 66 2e 0f 1f 84 00 	data16 cs nopw 0x0(%rax,%rax,1)
ffffffff8020146a:	00 00 00 00 
ffffffff8020146e:	66 66 2e 0f 1f 84 00 	data16 cs nopw 0x0(%rax,%rax,1)
ffffffff80201475:	00 00 00 00 
ffffffff80201479:	0f 1f 80 00 00 00 00 	nopl   0x0(%rax)
ffffffff80201480:	48 83 c0 01          	add    $0x1,%rax
ffffffff80201484:	49 39 c2             	cmp    %rax,%r10
ffffffff80201487:	74 27                	je     ffffffff802014b0 <pmm_alloc_page+0xf0>
ffffffff80201489:	48 89 c2             	mov    %rax,%rdx
ffffffff8020148c:	89 c1                	mov    %eax,%ecx
ffffffff8020148e:	48 c1 ea 03          	shr    $0x3,%rdx
ffffffff80201492:	83 e1 07             	and    $0x7,%ecx
ffffffff80201495:	4c 01 c2             	add    %r8,%rdx
ffffffff80201498:	0f b6 3a             	movzbl (%rdx),%edi
ffffffff8020149b:	0f a3 cf             	bt     %ecx,%edi
ffffffff8020149e:	89 fe                	mov    %edi,%esi
ffffffff802014a0:	72 de                	jb     ffffffff80201480 <pmm_alloc_page+0xc0>
ffffffff802014a2:	e9 7b ff ff ff       	jmp    ffffffff80201422 <pmm_alloc_page+0x62>
ffffffff802014a7:	66 0f 1f 84 00 00 00 	nopw   0x0(%rax,%rax,1)
ffffffff802014ae:	00 00 
ffffffff802014b0:	31 c0                	xor    %eax,%eax
ffffffff802014b2:	c3                   	ret
ffffffff802014b3:	66 66 2e 0f 1f 84 00 	data16 cs nopw 0x0(%rax,%rax,1)
ffffffff802014ba:	00 00 00 00 
ffffffff802014be:	66 90                	xchg   %ax,%ax

ffffffff802014c0 <pmm_alloc_pages>:
ffffffff802014c0:	49 89 fb             	mov    %rdi,%r11
ffffffff802014c3:	48 85 ff             	test   %rdi,%rdi
ffffffff802014c6:	0f 84 c8 00 00 00    	je     ffffffff80201594 <pmm_alloc_pages+0xd4>
ffffffff802014cc:	48 83 ff 01          	cmp    $0x1,%rdi
ffffffff802014d0:	0f 84 da 01 00 00    	je     ffffffff802016b0 <pmm_alloc_pages+0x1f0>
ffffffff802014d6:	4c 8b 15 33 71 00 00 	mov    0x7133(%rip),%r10        # ffffffff80208610 <pmm_last_allocated_index>
ffffffff802014dd:	4c 8b 0d 34 71 00 00 	mov    0x7134(%rip),%r9        # ffffffff80208618 <pmm_highest_page>
ffffffff802014e4:	4d 39 ca             	cmp    %r9,%r10
ffffffff802014e7:	0f 83 c8 01 00 00    	jae    ffffffff802016b5 <pmm_alloc_pages+0x1f5>
ffffffff802014ed:	4c 8b 05 34 71 00 00 	mov    0x7134(%rip),%r8        # ffffffff80208628 <pmm_bitmap>
ffffffff802014f4:	4c 89 d2             	mov    %r10,%rdx
ffffffff802014f7:	4c 89 d0             	mov    %r10,%rax
ffffffff802014fa:	31 f6                	xor    %esi,%esi
ffffffff802014fc:	eb 21                	jmp    ffffffff8020151f <pmm_alloc_pages+0x5f>
ffffffff802014fe:	66 90                	xchg   %ax,%ax
ffffffff80201500:	48 85 f6             	test   %rsi,%rsi
ffffffff80201503:	0f 84 97 00 00 00    	je     ffffffff802015a0 <pmm_alloc_pages+0xe0>
ffffffff80201509:	48 83 c6 01          	add    $0x1,%rsi
ffffffff8020150d:	49 39 f3             	cmp    %rsi,%r11
ffffffff80201510:	0f 84 aa 00 00 00    	je     ffffffff802015c0 <pmm_alloc_pages+0x100>
ffffffff80201516:	48 83 c2 01          	add    $0x1,%rdx
ffffffff8020151a:	4c 39 ca             	cmp    %r9,%rdx
ffffffff8020151d:	74 21                	je     ffffffff80201540 <pmm_alloc_pages+0x80>
ffffffff8020151f:	48 89 d1             	mov    %rdx,%rcx
ffffffff80201522:	48 c1 e9 03          	shr    $0x3,%rcx
ffffffff80201526:	41 0f b6 3c 08       	movzbl (%r8,%rcx,1),%edi
ffffffff8020152b:	89 d1                	mov    %edx,%ecx
ffffffff8020152d:	83 e1 07             	and    $0x7,%ecx
ffffffff80201530:	0f a3 cf             	bt     %ecx,%edi
ffffffff80201533:	73 cb                	jae    ffffffff80201500 <pmm_alloc_pages+0x40>
ffffffff80201535:	48 83 c2 01          	add    $0x1,%rdx
ffffffff80201539:	31 f6                	xor    %esi,%esi
ffffffff8020153b:	4c 39 ca             	cmp    %r9,%rdx
ffffffff8020153e:	75 df                	jne    ffffffff8020151f <pmm_alloc_pages+0x5f>
ffffffff80201540:	4d 85 d2             	test   %r10,%r10
ffffffff80201543:	74 4f                	je     ffffffff80201594 <pmm_alloc_pages+0xd4>
ffffffff80201545:	4c 8b 05 dc 70 00 00 	mov    0x70dc(%rip),%r8        # ffffffff80208628 <pmm_bitmap>
ffffffff8020154c:	31 d2                	xor    %edx,%edx
ffffffff8020154e:	31 f6                	xor    %esi,%esi
ffffffff80201550:	eb 21                	jmp    ffffffff80201573 <pmm_alloc_pages+0xb3>
ffffffff80201552:	66 0f 1f 44 00 00    	nopw   0x0(%rax,%rax,1)
ffffffff80201558:	48 85 f6             	test   %rsi,%rsi
ffffffff8020155b:	74 53                	je     ffffffff802015b0 <pmm_alloc_pages+0xf0>
ffffffff8020155d:	48 83 c6 01          	add    $0x1,%rsi
ffffffff80201561:	49 39 f3             	cmp    %rsi,%r11
ffffffff80201564:	0f 84 d6 00 00 00    	je     ffffffff80201640 <pmm_alloc_pages+0x180>
ffffffff8020156a:	48 83 c2 01          	add    $0x1,%rdx
ffffffff8020156e:	49 39 d2             	cmp    %rdx,%r10
ffffffff80201571:	74 21                	je     ffffffff80201594 <pmm_alloc_pages+0xd4>
ffffffff80201573:	48 89 d1             	mov    %rdx,%rcx
ffffffff80201576:	48 c1 e9 03          	shr    $0x3,%rcx
ffffffff8020157a:	41 0f b6 3c 08       	movzbl (%r8,%rcx,1),%edi
ffffffff8020157f:	89 d1                	mov    %edx,%ecx
ffffffff80201581:	83 e1 07             	and    $0x7,%ecx
ffffffff80201584:	0f a3 cf             	bt     %ecx,%edi
ffffffff80201587:	73 cf                	jae    ffffffff80201558 <pmm_alloc_pages+0x98>
ffffffff80201589:	48 83 c2 01          	add    $0x1,%rdx
ffffffff8020158d:	31 f6                	xor    %esi,%esi
ffffffff8020158f:	49 39 d2             	cmp    %rdx,%r10
ffffffff80201592:	75 df                	jne    ffffffff80201573 <pmm_alloc_pages+0xb3>
ffffffff80201594:	31 c0                	xor    %eax,%eax
ffffffff80201596:	c3                   	ret
ffffffff80201597:	66 0f 1f 84 00 00 00 	nopw   0x0(%rax,%rax,1)
ffffffff8020159e:	00 00 
ffffffff802015a0:	48 89 d0             	mov    %rdx,%rax
ffffffff802015a3:	be 01 00 00 00       	mov    $0x1,%esi
ffffffff802015a8:	e9 69 ff ff ff       	jmp    ffffffff80201516 <pmm_alloc_pages+0x56>
ffffffff802015ad:	0f 1f 00             	nopl   (%rax)
ffffffff802015b0:	48 89 d0             	mov    %rdx,%rax
ffffffff802015b3:	be 01 00 00 00       	mov    $0x1,%esi
ffffffff802015b8:	eb b0                	jmp    ffffffff8020156a <pmm_alloc_pages+0xaa>
ffffffff802015ba:	66 0f 1f 44 00 00    	nopw   0x0(%rax,%rax,1)
ffffffff802015c0:	48 89 c2             	mov    %rax,%rdx
ffffffff802015c3:	31 ff                	xor    %edi,%edi
ffffffff802015c5:	41 ba 01 00 00 00    	mov    $0x1,%r10d
ffffffff802015cb:	66 66 2e 0f 1f 84 00 	data16 cs nopw 0x0(%rax,%rax,1)
ffffffff802015d2:	00 00 00 00 
ffffffff802015d6:	66 66 2e 0f 1f 84 00 	data16 cs nopw 0x0(%rax,%rax,1)
ffffffff802015dd:	00 00 00 00 
ffffffff802015e1:	66 66 2e 0f 1f 84 00 	data16 cs nopw 0x0(%rax,%rax,1)
ffffffff802015e8:	00 00 00 00 
ffffffff802015ec:	66 66 2e 0f 1f 84 00 	data16 cs nopw 0x0(%rax,%rax,1)
ffffffff802015f3:	00 00 00 00 
ffffffff802015f7:	66 0f 1f 84 00 00 00 	nopw   0x0(%rax,%rax,1)
ffffffff802015fe:	00 00 
ffffffff80201600:	49 89 d1             	mov    %rdx,%r9
ffffffff80201603:	89 d1                	mov    %edx,%ecx
ffffffff80201605:	45 89 d3             	mov    %r10d,%r11d
ffffffff80201608:	48 83 c7 01          	add    $0x1,%rdi
ffffffff8020160c:	49 c1 e9 03          	shr    $0x3,%r9
ffffffff80201610:	83 e1 07             	and    $0x7,%ecx
ffffffff80201613:	48 83 c2 01          	add    $0x1,%rdx
ffffffff80201617:	41 d3 e3             	shl    %cl,%r11d
ffffffff8020161a:	47 08 1c 08          	or     %r11b,(%r8,%r9,1)
ffffffff8020161e:	48 39 f7             	cmp    %rsi,%rdi
ffffffff80201621:	72 dd                	jb     ffffffff80201600 <pmm_alloc_pages+0x140>
ffffffff80201623:	48 8d 14 06          	lea    (%rsi,%rax,1),%rdx
ffffffff80201627:	48 c1 e6 0c          	shl    $0xc,%rsi
ffffffff8020162b:	48 c1 e0 0c          	shl    $0xc,%rax
ffffffff8020162f:	48 29 35 ea 6f 00 00 	sub    %rsi,0x6fea(%rip)        # ffffffff80208620 <pmm_free_memory>
ffffffff80201636:	48 89 15 d3 6f 00 00 	mov    %rdx,0x6fd3(%rip)        # ffffffff80208610 <pmm_last_allocated_index>
ffffffff8020163d:	c3                   	ret
ffffffff8020163e:	66 90                	xchg   %ax,%ax
ffffffff80201640:	48 89 c2             	mov    %rax,%rdx
ffffffff80201643:	31 ff                	xor    %edi,%edi
ffffffff80201645:	41 ba 01 00 00 00    	mov    $0x1,%r10d
ffffffff8020164b:	66 66 2e 0f 1f 84 00 	data16 cs nopw 0x0(%rax,%rax,1)
ffffffff80201652:	00 00 00 00 
ffffffff80201656:	66 66 2e 0f 1f 84 00 	data16 cs nopw 0x0(%rax,%rax,1)
ffffffff8020165d:	00 00 00 00 
ffffffff80201661:	66 66 2e 0f 1f 84 00 	data16 cs nopw 0x0(%rax,%rax,1)
ffffffff80201668:	00 00 00 00 
ffffffff8020166c:	66 66 2e 0f 1f 84 00 	data16 cs nopw 0x0(%rax,%rax,1)
ffffffff80201673:	00 00 00 00 
ffffffff80201677:	66 0f 1f 84 00 00 00 	nopw   0x0(%rax,%rax,1)
ffffffff8020167e:	00 00 
ffffffff80201680:	49 89 d1             	mov    %rdx,%r9
ffffffff80201683:	89 d1                	mov    %edx,%ecx
ffffffff80201685:	45 89 d3             	mov    %r10d,%r11d
ffffffff80201688:	48 83 c7 01          	add    $0x1,%rdi
ffffffff8020168c:	49 c1 e9 03          	shr    $0x3,%r9
ffffffff80201690:	83 e1 07             	and    $0x7,%ecx
ffffffff80201693:	48 83 c2 01          	add    $0x1,%rdx
ffffffff80201697:	41 d3 e3             	shl    %cl,%r11d
ffffffff8020169a:	47 08 1c 08          	or     %r11b,(%r8,%r9,1)
ffffffff8020169e:	48 39 f7             	cmp    %rsi,%rdi
ffffffff802016a1:	72 dd                	jb     ffffffff80201680 <pmm_alloc_pages+0x1c0>
ffffffff802016a3:	e9 7b ff ff ff       	jmp    ffffffff80201623 <pmm_alloc_pages+0x163>
ffffffff802016a8:	0f 1f 84 00 00 00 00 	nopl   0x0(%rax,%rax,1)
ffffffff802016af:	00 
ffffffff802016b0:	e9 0b fd ff ff       	jmp    ffffffff802013c0 <pmm_alloc_page>
ffffffff802016b5:	4c 89 d0             	mov    %r10,%rax
ffffffff802016b8:	e9 83 fe ff ff       	jmp    ffffffff80201540 <pmm_alloc_pages+0x80>
ffffffff802016bd:	0f 1f 00             	nopl   (%rax)

ffffffff802016c0 <pmm_free_page>:
ffffffff802016c0:	48 89 f8             	mov    %rdi,%rax
ffffffff802016c3:	48 c1 ef 0c          	shr    $0xc,%rdi
ffffffff802016c7:	48 c1 e8 0f          	shr    $0xf,%rax
ffffffff802016cb:	48 03 05 56 6f 00 00 	add    0x6f56(%rip),%rax        # ffffffff80208628 <pmm_bitmap>
ffffffff802016d2:	83 e7 07             	and    $0x7,%edi
ffffffff802016d5:	0f b6 10             	movzbl (%rax),%edx
ffffffff802016d8:	0f a3 fa             	bt     %edi,%edx
ffffffff802016db:	89 d6                	mov    %edx,%esi
ffffffff802016dd:	72 01                	jb     ffffffff802016e0 <pmm_free_page+0x20>
ffffffff802016df:	c3                   	ret
ffffffff802016e0:	ba 01 00 00 00       	mov    $0x1,%edx
ffffffff802016e5:	89 f9                	mov    %edi,%ecx
ffffffff802016e7:	48 81 05 2e 6f 00 00 	addq   $0x1000,0x6f2e(%rip)        # ffffffff80208620 <pmm_free_memory>
ffffffff802016ee:	00 10 00 00 
ffffffff802016f2:	d3 e2                	shl    %cl,%edx
ffffffff802016f4:	f7 d2                	not    %edx
ffffffff802016f6:	21 f2                	and    %esi,%edx
ffffffff802016f8:	88 10                	mov    %dl,(%rax)
ffffffff802016fa:	c3                   	ret
ffffffff802016fb:	0f 1f 44 00 00       	nopl   0x0(%rax,%rax,1)

ffffffff80201700 <vmm_init>:
ffffffff80201700:	0f 20 d8             	mov    %cr3,%rax
ffffffff80201703:	48 03 05 fe 6e 00 00 	add    0x6efe(%rip),%rax        # ffffffff80208608 <hhdm_offset>
ffffffff8020170a:	48 89 05 1f 6f 00 00 	mov    %rax,0x6f1f(%rip)        # ffffffff80208630 <kernel_pml4>
ffffffff80201711:	c3                   	ret
ffffffff80201712:	66 66 2e 0f 1f 84 00 	data16 cs nopw 0x0(%rax,%rax,1)
ffffffff80201719:	00 00 00 00 
ffffffff8020171d:	0f 1f 00             	nopl   (%rax)

ffffffff80201720 <vmm_new_pagemap>:
ffffffff80201720:	55                   	push   %rbp
ffffffff80201721:	53                   	push   %rbx
ffffffff80201722:	48 83 ec 08          	sub    $0x8,%rsp
ffffffff80201726:	e8 95 fc ff ff       	call   ffffffff802013c0 <pmm_alloc_page>
ffffffff8020172b:	48 89 c3             	mov    %rax,%rbx
ffffffff8020172e:	48 85 c0             	test   %rax,%rax
ffffffff80201731:	74 5e                	je     ffffffff80201791 <vmm_new_pagemap+0x71>
ffffffff80201733:	48 8b 2d ce 6e 00 00 	mov    0x6ece(%rip),%rbp        # ffffffff80208608 <hhdm_offset>
ffffffff8020173a:	31 f6                	xor    %esi,%esi
ffffffff8020173c:	ba 00 10 00 00       	mov    $0x1000,%edx
ffffffff80201741:	48 01 c5             	add    %rax,%rbp
ffffffff80201744:	48 89 ef             	mov    %rbp,%rdi
ffffffff80201747:	e8 34 18 00 00       	call   ffffffff80202f80 <memset>
ffffffff8020174c:	48 8b 0d dd 6e 00 00 	mov    0x6edd(%rip),%rcx        # ffffffff80208630 <kernel_pml4>
ffffffff80201753:	48 8d 85 00 08 00 00 	lea    0x800(%rbp),%rax
ffffffff8020175a:	48 8d b5 00 10 00 00 	lea    0x1000(%rbp),%rsi
ffffffff80201761:	48 29 e9             	sub    %rbp,%rcx
ffffffff80201764:	66 66 2e 0f 1f 84 00 	data16 cs nopw 0x0(%rax,%rax,1)
ffffffff8020176b:	00 00 00 00 
ffffffff8020176f:	66 66 2e 0f 1f 84 00 	data16 cs nopw 0x0(%rax,%rax,1)
ffffffff80201776:	00 00 00 00 
ffffffff8020177a:	66 0f 1f 44 00 00    	nopw   0x0(%rax,%rax,1)
ffffffff80201780:	48 8b 14 01          	mov    (%rcx,%rax,1),%rdx
ffffffff80201784:	48 83 c0 08          	add    $0x8,%rax
ffffffff80201788:	48 89 50 f8          	mov    %rdx,-0x8(%rax)
ffffffff8020178c:	48 39 f0             	cmp    %rsi,%rax
ffffffff8020178f:	75 ef                	jne    ffffffff80201780 <vmm_new_pagemap+0x60>
ffffffff80201791:	48 83 c4 08          	add    $0x8,%rsp
ffffffff80201795:	48 89 d8             	mov    %rbx,%rax
ffffffff80201798:	5b                   	pop    %rbx
ffffffff80201799:	5d                   	pop    %rbp
ffffffff8020179a:	c3                   	ret
ffffffff8020179b:	0f 1f 44 00 00       	nopl   0x0(%rax,%rax,1)

ffffffff802017a0 <vmm_switch_pagemap>:
ffffffff802017a0:	0f 22 df             	mov    %rdi,%cr3
ffffffff802017a3:	c3                   	ret
ffffffff802017a4:	66 66 2e 0f 1f 84 00 	data16 cs nopw 0x0(%rax,%rax,1)
ffffffff802017ab:	00 00 00 00 
ffffffff802017af:	90                   	nop

ffffffff802017b0 <vmm_restore_kernel_pagemap>:
ffffffff802017b0:	48 8b 05 79 6e 00 00 	mov    0x6e79(%rip),%rax        # ffffffff80208630 <kernel_pml4>
ffffffff802017b7:	48 2b 05 4a 6e 00 00 	sub    0x6e4a(%rip),%rax        # ffffffff80208608 <hhdm_offset>
ffffffff802017be:	0f 22 d8             	mov    %rax,%cr3
ffffffff802017c1:	c3                   	ret
ffffffff802017c2:	66 66 2e 0f 1f 84 00 	data16 cs nopw 0x0(%rax,%rax,1)
ffffffff802017c9:	00 00 00 00 
ffffffff802017cd:	0f 1f 00             	nopl   (%rax)

ffffffff802017d0 <vmm_map_page>:
ffffffff802017d0:	41 57                	push   %r15
ffffffff802017d2:	48 89 f0             	mov    %rsi,%rax
ffffffff802017d5:	49 89 f7             	mov    %rsi,%r15
ffffffff802017d8:	41 56                	push   %r14
ffffffff802017da:	48 c1 e8 24          	shr    $0x24,%rax
ffffffff802017de:	49 89 f6             	mov    %rsi,%r14
ffffffff802017e1:	49 c1 ef 1e          	shr    $0x1e,%r15
ffffffff802017e5:	41 55                	push   %r13
ffffffff802017e7:	25 f8 0f 00 00       	and    $0xff8,%eax
ffffffff802017ec:	49 c1 ee 15          	shr    $0x15,%r14
ffffffff802017f0:	66 41 81 e7 ff 01    	and    $0x1ff,%r15w
ffffffff802017f6:	41 54                	push   %r12
ffffffff802017f8:	49 89 cc             	mov    %rcx,%r12
ffffffff802017fb:	66 41 81 e6 ff 01    	and    $0x1ff,%r14w
ffffffff80201801:	55                   	push   %rbp
ffffffff80201802:	48 89 f5             	mov    %rsi,%rbp
ffffffff80201805:	53                   	push   %rbx
ffffffff80201806:	48 89 d3             	mov    %rdx,%rbx
ffffffff80201809:	48 c1 ed 0c          	shr    $0xc,%rbp
ffffffff8020180d:	66 81 e5 ff 01       	and    $0x1ff,%bp
ffffffff80201812:	48 83 ec 18          	sub    $0x18,%rsp
ffffffff80201816:	48 8b 0d eb 6d 00 00 	mov    0x6deb(%rip),%rcx        # ffffffff80208608 <hhdm_offset>
ffffffff8020181d:	4c 8d 04 0f          	lea    (%rdi,%rcx,1),%r8
ffffffff80201821:	49 01 c0             	add    %rax,%r8
ffffffff80201824:	49 8b 10             	mov    (%r8),%rdx
ffffffff80201827:	f6 c2 01             	test   $0x1,%dl
ffffffff8020182a:	74 64                	je     ffffffff80201890 <vmm_map_page+0xc0>
ffffffff8020182c:	48 81 e2 00 f0 ff ff 	and    $0xfffffffffffff000,%rdx
ffffffff80201833:	45 0f b7 ff          	movzwl %r15w,%r15d
ffffffff80201837:	48 01 ca             	add    %rcx,%rdx
ffffffff8020183a:	4e 8d 3c fa          	lea    (%rdx,%r15,8),%r15
ffffffff8020183e:	49 8b 07             	mov    (%r15),%rax
ffffffff80201841:	a8 01                	test   $0x1,%al
ffffffff80201843:	0f 84 bf 00 00 00    	je     ffffffff80201908 <vmm_map_page+0x138>
ffffffff80201849:	48 25 00 f0 ff ff    	and    $0xfffffffffffff000,%rax
ffffffff8020184f:	45 0f b7 f6          	movzwl %r14w,%r14d
ffffffff80201853:	48 01 c8             	add    %rcx,%rax
ffffffff80201856:	4e 8d 34 f0          	lea    (%rax,%r14,8),%r14
ffffffff8020185a:	49 8b 06             	mov    (%r14),%rax
ffffffff8020185d:	a8 01                	test   $0x1,%al
ffffffff8020185f:	74 6f                	je     ffffffff802018d0 <vmm_map_page+0x100>
ffffffff80201861:	48 81 e3 00 f0 ff ff 	and    $0xfffffffffffff000,%rbx
ffffffff80201868:	0f b7 ed             	movzwl %bp,%ebp
ffffffff8020186b:	48 25 00 f0 ff ff    	and    $0xfffffffffffff000,%rax
ffffffff80201871:	4c 09 e3             	or     %r12,%rbx
ffffffff80201874:	48 8d 14 e9          	lea    (%rcx,%rbp,8),%rdx
ffffffff80201878:	48 83 cb 01          	or     $0x1,%rbx
ffffffff8020187c:	48 89 1c 02          	mov    %rbx,(%rdx,%rax,1)
ffffffff80201880:	48 83 c4 18          	add    $0x18,%rsp
ffffffff80201884:	5b                   	pop    %rbx
ffffffff80201885:	5d                   	pop    %rbp
ffffffff80201886:	41 5c                	pop    %r12
ffffffff80201888:	41 5d                	pop    %r13
ffffffff8020188a:	41 5e                	pop    %r14
ffffffff8020188c:	41 5f                	pop    %r15
ffffffff8020188e:	c3                   	ret
ffffffff8020188f:	90                   	nop
ffffffff80201890:	4c 89 44 24 08       	mov    %r8,0x8(%rsp)
ffffffff80201895:	e8 26 fb ff ff       	call   ffffffff802013c0 <pmm_alloc_page>
ffffffff8020189a:	48 8b 3d 67 6d 00 00 	mov    0x6d67(%rip),%rdi        # ffffffff80208608 <hhdm_offset>
ffffffff802018a1:	ba 00 10 00 00       	mov    $0x1000,%edx
ffffffff802018a6:	31 f6                	xor    %esi,%esi
ffffffff802018a8:	49 89 c5             	mov    %rax,%r13
ffffffff802018ab:	48 01 c7             	add    %rax,%rdi
ffffffff802018ae:	e8 cd 16 00 00       	call   ffffffff80202f80 <memset>
ffffffff802018b3:	4c 8b 44 24 08       	mov    0x8(%rsp),%r8
ffffffff802018b8:	4c 89 ea             	mov    %r13,%rdx
ffffffff802018bb:	48 83 ca 07          	or     $0x7,%rdx
ffffffff802018bf:	49 89 10             	mov    %rdx,(%r8)
ffffffff802018c2:	48 8b 0d 3f 6d 00 00 	mov    0x6d3f(%rip),%rcx        # ffffffff80208608 <hhdm_offset>
ffffffff802018c9:	e9 5e ff ff ff       	jmp    ffffffff8020182c <vmm_map_page+0x5c>
ffffffff802018ce:	66 90                	xchg   %ax,%ax
ffffffff802018d0:	e8 eb fa ff ff       	call   ffffffff802013c0 <pmm_alloc_page>
ffffffff802018d5:	48 8b 3d 2c 6d 00 00 	mov    0x6d2c(%rip),%rdi        # ffffffff80208608 <hhdm_offset>
ffffffff802018dc:	ba 00 10 00 00       	mov    $0x1000,%edx
ffffffff802018e1:	31 f6                	xor    %esi,%esi
ffffffff802018e3:	49 89 c5             	mov    %rax,%r13
ffffffff802018e6:	48 01 c7             	add    %rax,%rdi
ffffffff802018e9:	e8 92 16 00 00       	call   ffffffff80202f80 <memset>
ffffffff802018ee:	4c 89 e8             	mov    %r13,%rax
ffffffff802018f1:	48 83 c8 07          	or     $0x7,%rax
ffffffff802018f5:	49 89 06             	mov    %rax,(%r14)
ffffffff802018f8:	48 8b 0d 09 6d 00 00 	mov    0x6d09(%rip),%rcx        # ffffffff80208608 <hhdm_offset>
ffffffff802018ff:	e9 5d ff ff ff       	jmp    ffffffff80201861 <vmm_map_page+0x91>
ffffffff80201904:	0f 1f 40 00          	nopl   0x0(%rax)
ffffffff80201908:	e8 b3 fa ff ff       	call   ffffffff802013c0 <pmm_alloc_page>
ffffffff8020190d:	48 8b 3d f4 6c 00 00 	mov    0x6cf4(%rip),%rdi        # ffffffff80208608 <hhdm_offset>
ffffffff80201914:	ba 00 10 00 00       	mov    $0x1000,%edx
ffffffff80201919:	31 f6                	xor    %esi,%esi
ffffffff8020191b:	49 89 c5             	mov    %rax,%r13
ffffffff8020191e:	48 01 c7             	add    %rax,%rdi
ffffffff80201921:	e8 5a 16 00 00       	call   ffffffff80202f80 <memset>
ffffffff80201926:	4c 89 e8             	mov    %r13,%rax
ffffffff80201929:	48 83 c8 07          	or     $0x7,%rax
ffffffff8020192d:	49 89 07             	mov    %rax,(%r15)
ffffffff80201930:	48 8b 0d d1 6c 00 00 	mov    0x6cd1(%rip),%rcx        # ffffffff80208608 <hhdm_offset>
ffffffff80201937:	e9 0d ff ff ff       	jmp    ffffffff80201849 <vmm_map_page+0x79>
ffffffff8020193c:	0f 1f 40 00          	nopl   0x0(%rax)

ffffffff80201940 <vmm_free_pagemap>:
ffffffff80201940:	41 57                	push   %r15
ffffffff80201942:	41 56                	push   %r14
ffffffff80201944:	41 55                	push   %r13
ffffffff80201946:	41 54                	push   %r12
ffffffff80201948:	55                   	push   %rbp
ffffffff80201949:	53                   	push   %rbx
ffffffff8020194a:	48 83 ec 28          	sub    $0x28,%rsp
ffffffff8020194e:	48 89 7c 24 18       	mov    %rdi,0x18(%rsp)
ffffffff80201953:	48 85 ff             	test   %rdi,%rdi
ffffffff80201956:	0f 84 5f 01 00 00    	je     ffffffff80201abb <vmm_free_pagemap+0x17b>
ffffffff8020195c:	48 8b 05 a5 6c 00 00 	mov    0x6ca5(%rip),%rax        # ffffffff80208608 <hhdm_offset>
ffffffff80201963:	48 01 f8             	add    %rdi,%rax
ffffffff80201966:	49 89 c5             	mov    %rax,%r13
ffffffff80201969:	48 8d 80 00 08 00 00 	lea    0x800(%rax),%rax
ffffffff80201970:	48 89 44 24 10       	mov    %rax,0x10(%rsp)
ffffffff80201975:	eb 12                	jmp    ffffffff80201989 <vmm_free_pagemap+0x49>
ffffffff80201977:	48 8b 44 24 10       	mov    0x10(%rsp),%rax
ffffffff8020197c:	49 83 c5 08          	add    $0x8,%r13
ffffffff80201980:	49 39 c5             	cmp    %rax,%r13
ffffffff80201983:	0f 84 1a 01 00 00    	je     ffffffff80201aa3 <vmm_free_pagemap+0x163>
ffffffff80201989:	49 8b 45 00          	mov    0x0(%r13),%rax
ffffffff8020198d:	a8 01                	test   $0x1,%al
ffffffff8020198f:	74 e6                	je     ffffffff80201977 <vmm_free_pagemap+0x37>
ffffffff80201991:	48 25 00 f0 ff ff    	and    $0xfffffffffffff000,%rax
ffffffff80201997:	48 03 05 6a 6c 00 00 	add    0x6c6a(%rip),%rax        # ffffffff80208608 <hhdm_offset>
ffffffff8020199e:	49 89 c4             	mov    %rax,%r12
ffffffff802019a1:	48 8d 80 00 10 00 00 	lea    0x1000(%rax),%rax
ffffffff802019a8:	48 89 44 24 08       	mov    %rax,0x8(%rsp)
ffffffff802019ad:	eb 12                	jmp    ffffffff802019c1 <vmm_free_pagemap+0x81>
ffffffff802019af:	48 8b 44 24 08       	mov    0x8(%rsp),%rax
ffffffff802019b4:	49 83 c4 08          	add    $0x8,%r12
ffffffff802019b8:	49 39 c4             	cmp    %rax,%r12
ffffffff802019bb:	0f 84 c0 00 00 00    	je     ffffffff80201a81 <vmm_free_pagemap+0x141>
ffffffff802019c1:	49 8b 04 24          	mov    (%r12),%rax
ffffffff802019c5:	a8 01                	test   $0x1,%al
ffffffff802019c7:	74 e6                	je     ffffffff802019af <vmm_free_pagemap+0x6f>
ffffffff802019c9:	48 25 00 f0 ff ff    	and    $0xfffffffffffff000,%rax
ffffffff802019cf:	48 03 05 32 6c 00 00 	add    0x6c32(%rip),%rax        # ffffffff80208608 <hhdm_offset>
ffffffff802019d6:	48 89 c3             	mov    %rax,%rbx
ffffffff802019d9:	48 8d a8 00 10 00 00 	lea    0x1000(%rax),%rbp
ffffffff802019e0:	eb 17                	jmp    ffffffff802019f9 <vmm_free_pagemap+0xb9>
ffffffff802019e2:	66 66 2e 0f 1f 84 00 	data16 cs nopw 0x0(%rax,%rax,1)
ffffffff802019e9:	00 00 00 00 
ffffffff802019ed:	0f 1f 00             	nopl   (%rax)
ffffffff802019f0:	48 83 c3 08          	add    $0x8,%rbx
ffffffff802019f4:	48 39 dd             	cmp    %rbx,%rbp
ffffffff802019f7:	74 66                	je     ffffffff80201a5f <vmm_free_pagemap+0x11f>
ffffffff802019f9:	48 8b 03             	mov    (%rbx),%rax
ffffffff802019fc:	a8 01                	test   $0x1,%al
ffffffff802019fe:	74 f0                	je     ffffffff802019f0 <vmm_free_pagemap+0xb0>
ffffffff80201a00:	48 25 00 f0 ff ff    	and    $0xfffffffffffff000,%rax
ffffffff80201a06:	48 03 05 fb 6b 00 00 	add    0x6bfb(%rip),%rax        # ffffffff80208608 <hhdm_offset>
ffffffff80201a0d:	49 89 c6             	mov    %rax,%r14
ffffffff80201a10:	4c 8d b8 00 10 00 00 	lea    0x1000(%rax),%r15
ffffffff80201a17:	eb 10                	jmp    ffffffff80201a29 <vmm_free_pagemap+0xe9>
ffffffff80201a19:	0f 1f 80 00 00 00 00 	nopl   0x0(%rax)
ffffffff80201a20:	49 83 c6 08          	add    $0x8,%r14
ffffffff80201a24:	4d 39 f7             	cmp    %r14,%r15
ffffffff80201a27:	74 1e                	je     ffffffff80201a47 <vmm_free_pagemap+0x107>
ffffffff80201a29:	49 8b 3e             	mov    (%r14),%rdi
ffffffff80201a2c:	40 f6 c7 01          	test   $0x1,%dil
ffffffff80201a30:	74 ee                	je     ffffffff80201a20 <vmm_free_pagemap+0xe0>
ffffffff80201a32:	48 81 e7 00 f0 ff ff 	and    $0xfffffffffffff000,%rdi
ffffffff80201a39:	49 83 c6 08          	add    $0x8,%r14
ffffffff80201a3d:	e8 7e fc ff ff       	call   ffffffff802016c0 <pmm_free_page>
ffffffff80201a42:	4d 39 f7             	cmp    %r14,%r15
ffffffff80201a45:	75 e2                	jne    ffffffff80201a29 <vmm_free_pagemap+0xe9>
ffffffff80201a47:	48 8b 3b             	mov    (%rbx),%rdi
ffffffff80201a4a:	48 83 c3 08          	add    $0x8,%rbx
ffffffff80201a4e:	48 81 e7 00 f0 ff ff 	and    $0xfffffffffffff000,%rdi
ffffffff80201a55:	e8 66 fc ff ff       	call   ffffffff802016c0 <pmm_free_page>
ffffffff80201a5a:	48 39 dd             	cmp    %rbx,%rbp
ffffffff80201a5d:	75 9a                	jne    ffffffff802019f9 <vmm_free_pagemap+0xb9>
ffffffff80201a5f:	49 8b 3c 24          	mov    (%r12),%rdi
ffffffff80201a63:	49 83 c4 08          	add    $0x8,%r12
ffffffff80201a67:	48 81 e7 00 f0 ff ff 	and    $0xfffffffffffff000,%rdi
ffffffff80201a6e:	e8 4d fc ff ff       	call   ffffffff802016c0 <pmm_free_page>
ffffffff80201a73:	48 8b 44 24 08       	mov    0x8(%rsp),%rax
ffffffff80201a78:	49 39 c4             	cmp    %rax,%r12
ffffffff80201a7b:	0f 85 40 ff ff ff    	jne    ffffffff802019c1 <vmm_free_pagemap+0x81>
ffffffff80201a81:	49 8b 7d 00          	mov    0x0(%r13),%rdi
ffffffff80201a85:	49 83 c5 08          	add    $0x8,%r13
ffffffff80201a89:	48 81 e7 00 f0 ff ff 	and    $0xfffffffffffff000,%rdi
ffffffff80201a90:	e8 2b fc ff ff       	call   ffffffff802016c0 <pmm_free_page>
ffffffff80201a95:	48 8b 44 24 10       	mov    0x10(%rsp),%rax
ffffffff80201a9a:	49 39 c5             	cmp    %rax,%r13
ffffffff80201a9d:	0f 85 e6 fe ff ff    	jne    ffffffff80201989 <vmm_free_pagemap+0x49>
ffffffff80201aa3:	48 8b 7c 24 18       	mov    0x18(%rsp),%rdi
ffffffff80201aa8:	48 83 c4 28          	add    $0x28,%rsp
ffffffff80201aac:	5b                   	pop    %rbx
ffffffff80201aad:	5d                   	pop    %rbp
ffffffff80201aae:	41 5c                	pop    %r12
ffffffff80201ab0:	41 5d                	pop    %r13
ffffffff80201ab2:	41 5e                	pop    %r14
ffffffff80201ab4:	41 5f                	pop    %r15
ffffffff80201ab6:	e9 05 fc ff ff       	jmp    ffffffff802016c0 <pmm_free_page>
ffffffff80201abb:	48 83 c4 28          	add    $0x28,%rsp
ffffffff80201abf:	5b                   	pop    %rbx
ffffffff80201ac0:	5d                   	pop    %rbp
ffffffff80201ac1:	41 5c                	pop    %r12
ffffffff80201ac3:	41 5d                	pop    %r13
ffffffff80201ac5:	41 5e                	pop    %r14
ffffffff80201ac7:	41 5f                	pop    %r15
ffffffff80201ac9:	c3                   	ret
ffffffff80201aca:	66 2e 0f 1f 84 00 00 	cs nopw 0x0(%rax,%rax,1)
ffffffff80201ad1:	00 00 00 
ffffffff80201ad4:	66 2e 0f 1f 84 00 00 	cs nopw 0x0(%rax,%rax,1)
ffffffff80201adb:	00 00 00 
ffffffff80201ade:	66 90                	xchg   %ax,%ax

ffffffff80201ae0 <heap_init>:
ffffffff80201ae0:	c3                   	ret
ffffffff80201ae1:	66 66 2e 0f 1f 84 00 	data16 cs nopw 0x0(%rax,%rax,1)
ffffffff80201ae8:	00 00 00 00 
ffffffff80201aec:	0f 1f 40 00          	nopl   0x0(%rax)

ffffffff80201af0 <kmalloc>:
ffffffff80201af0:	48 85 ff             	test   %rdi,%rdi
ffffffff80201af3:	0f 84 25 01 00 00    	je     ffffffff80201c1e <kmalloc+0x12e>
ffffffff80201af9:	53                   	push   %rbx
ffffffff80201afa:	48 8d 5f 07          	lea    0x7(%rdi),%rbx
ffffffff80201afe:	48 83 e3 f8          	and    $0xfffffffffffffff8,%rbx
ffffffff80201b02:	48 81 fb 00 10 00 00 	cmp    $0x1000,%rbx
ffffffff80201b09:	77 77                	ja     ffffffff80201b82 <kmalloc+0x92>
ffffffff80201b0b:	48 8b 0d 2e 6b 00 00 	mov    0x6b2e(%rip),%rcx        # ffffffff80208640 <current_page>
ffffffff80201b12:	48 85 c9             	test   %rcx,%rcx
ffffffff80201b15:	74 29                	je     ffffffff80201b40 <kmalloc+0x50>
ffffffff80201b17:	48 8b 15 1a 6b 00 00 	mov    0x6b1a(%rip),%rdx        # ffffffff80208638 <current_page_offset>
ffffffff80201b1e:	48 8d 04 1a          	lea    (%rdx,%rbx,1),%rax
ffffffff80201b22:	48 3d 00 10 00 00    	cmp    $0x1000,%rax
ffffffff80201b28:	77 16                	ja     ffffffff80201b40 <kmalloc+0x50>
ffffffff80201b2a:	48 01 d1             	add    %rdx,%rcx
ffffffff80201b2d:	48 89 c3             	mov    %rax,%rbx
ffffffff80201b30:	48 89 1d 01 6b 00 00 	mov    %rbx,0x6b01(%rip)        # ffffffff80208638 <current_page_offset>
ffffffff80201b37:	48 89 c8             	mov    %rcx,%rax
ffffffff80201b3a:	5b                   	pop    %rbx
ffffffff80201b3b:	c3                   	ret
ffffffff80201b3c:	0f 1f 40 00          	nopl   0x0(%rax)
ffffffff80201b40:	e8 7b f8 ff ff       	call   ffffffff802013c0 <pmm_alloc_page>
ffffffff80201b45:	48 85 c0             	test   %rax,%rax
ffffffff80201b48:	0f 84 c9 00 00 00    	je     ffffffff80201c17 <kmalloc+0x127>
ffffffff80201b4e:	48 03 05 b3 6a 00 00 	add    0x6ab3(%rip),%rax        # ffffffff80208608 <hhdm_offset>
ffffffff80201b55:	48 89 05 e4 6a 00 00 	mov    %rax,0x6ae4(%rip)        # ffffffff80208640 <current_page>
ffffffff80201b5c:	48 89 c1             	mov    %rax,%rcx
ffffffff80201b5f:	48 8d 90 00 10 00 00 	lea    0x1000(%rax),%rdx
ffffffff80201b66:	66 2e 0f 1f 84 00 00 	cs nopw 0x0(%rax,%rax,1)
ffffffff80201b6d:	00 00 00 
ffffffff80201b70:	c6 00 00             	movb   $0x0,(%rax)
ffffffff80201b73:	48 83 c0 02          	add    $0x2,%rax
ffffffff80201b77:	c6 40 ff 00          	movb   $0x0,-0x1(%rax)
ffffffff80201b7b:	48 39 c2             	cmp    %rax,%rdx
ffffffff80201b7e:	75 f0                	jne    ffffffff80201b70 <kmalloc+0x80>
ffffffff80201b80:	eb ae                	jmp    ffffffff80201b30 <kmalloc+0x40>
ffffffff80201b82:	48 81 c3 ff 0f 00 00 	add    $0xfff,%rbx
ffffffff80201b89:	48 89 df             	mov    %rbx,%rdi
ffffffff80201b8c:	48 c1 ef 0c          	shr    $0xc,%rdi
ffffffff80201b90:	e8 2b f9 ff ff       	call   ffffffff802014c0 <pmm_alloc_pages>
ffffffff80201b95:	48 89 c2             	mov    %rax,%rdx
ffffffff80201b98:	48 85 c0             	test   %rax,%rax
ffffffff80201b9b:	74 7a                	je     ffffffff80201c17 <kmalloc+0x127>
ffffffff80201b9d:	48 03 15 64 6a 00 00 	add    0x6a64(%rip),%rdx        # ffffffff80208608 <hhdm_offset>
ffffffff80201ba4:	48 89 de             	mov    %rbx,%rsi
ffffffff80201ba7:	48 89 d1             	mov    %rdx,%rcx
ffffffff80201baa:	48 81 e6 00 f0 ff ff 	and    $0xfffffffffffff000,%rsi
ffffffff80201bb1:	48 81 fb ff 0f 00 00 	cmp    $0xfff,%rbx
ffffffff80201bb8:	0f 86 79 ff ff ff    	jbe    ffffffff80201b37 <kmalloc+0x47>
ffffffff80201bbe:	b8 01 00 00 00       	mov    $0x1,%eax
ffffffff80201bc3:	c6 02 00             	movb   $0x0,(%rdx)
ffffffff80201bc6:	48 39 f0             	cmp    %rsi,%rax
ffffffff80201bc9:	0f 83 68 ff ff ff    	jae    ffffffff80201b37 <kmalloc+0x47>
ffffffff80201bcf:	bf 01 00 00 00       	mov    $0x1,%edi
ffffffff80201bd4:	48 85 ff             	test   %rdi,%rdi
ffffffff80201bd7:	74 27                	je     ffffffff80201c00 <kmalloc+0x110>
ffffffff80201bd9:	c6 04 02 00          	movb   $0x0,(%rdx,%rax,1)
ffffffff80201bdd:	b8 02 00 00 00       	mov    $0x2,%eax
ffffffff80201be2:	48 39 f0             	cmp    %rsi,%rax
ffffffff80201be5:	0f 83 4c ff ff ff    	jae    ffffffff80201b37 <kmalloc+0x47>
ffffffff80201beb:	66 66 2e 0f 1f 84 00 	data16 cs nopw 0x0(%rax,%rax,1)
ffffffff80201bf2:	00 00 00 00 
ffffffff80201bf6:	66 2e 0f 1f 84 00 00 	cs nopw 0x0(%rax,%rax,1)
ffffffff80201bfd:	00 00 00 
ffffffff80201c00:	c6 04 02 00          	movb   $0x0,(%rdx,%rax,1)
ffffffff80201c04:	c6 44 02 01 00       	movb   $0x0,0x1(%rdx,%rax,1)
ffffffff80201c09:	48 83 c0 02          	add    $0x2,%rax
ffffffff80201c0d:	48 39 f0             	cmp    %rsi,%rax
ffffffff80201c10:	72 ee                	jb     ffffffff80201c00 <kmalloc+0x110>
ffffffff80201c12:	e9 20 ff ff ff       	jmp    ffffffff80201b37 <kmalloc+0x47>
ffffffff80201c17:	31 c9                	xor    %ecx,%ecx
ffffffff80201c19:	5b                   	pop    %rbx
ffffffff80201c1a:	48 89 c8             	mov    %rcx,%rax
ffffffff80201c1d:	c3                   	ret
ffffffff80201c1e:	31 c0                	xor    %eax,%eax
ffffffff80201c20:	c3                   	ret
ffffffff80201c21:	66 66 2e 0f 1f 84 00 	data16 cs nopw 0x0(%rax,%rax,1)
ffffffff80201c28:	00 00 00 00 
ffffffff80201c2c:	0f 1f 40 00          	nopl   0x0(%rax)

ffffffff80201c30 <kfree>:
ffffffff80201c30:	c3                   	ret
ffffffff80201c31:	66 2e 0f 1f 84 00 00 	cs nopw 0x0(%rax,%rax,1)
ffffffff80201c38:	00 00 00 
ffffffff80201c3b:	0f 1f 44 00 00       	nopl   0x0(%rax,%rax,1)

ffffffff80201c40 <tarfs_init>:
ffffffff80201c40:	48 8b 05 01 53 00 00 	mov    0x5301(%rip),%rax        # ffffffff80206f48 <module_request+0x28>
ffffffff80201c47:	48 85 c0             	test   %rax,%rax
ffffffff80201c4a:	74 07                	je     ffffffff80201c53 <tarfs_init+0x13>
ffffffff80201c4c:	48 83 78 08 00       	cmpq   $0x0,0x8(%rax)
ffffffff80201c51:	75 0d                	jne    ffffffff80201c60 <tarfs_init+0x20>
ffffffff80201c53:	48 c7 c7 88 4d 20 80 	mov    $0xffffffff80204d88,%rdi
ffffffff80201c5a:	e9 c1 ed ff ff       	jmp    ffffffff80200a20 <vga_print>
ffffffff80201c5f:	90                   	nop
ffffffff80201c60:	48 8b 40 10          	mov    0x10(%rax),%rax
ffffffff80201c64:	48 c7 c7 c0 4d 20 80 	mov    $0xffffffff80204dc0,%rdi
ffffffff80201c6b:	48 8b 00             	mov    (%rax),%rax
ffffffff80201c6e:	48 8b 50 08          	mov    0x8(%rax),%rdx
ffffffff80201c72:	48 8b 40 10          	mov    0x10(%rax),%rax
ffffffff80201c76:	48 89 15 d3 69 00 00 	mov    %rdx,0x69d3(%rip)        # ffffffff80208650 <ramdisk_base>
ffffffff80201c7d:	48 89 05 c4 69 00 00 	mov    %rax,0x69c4(%rip)        # ffffffff80208648 <ramdisk_size>
ffffffff80201c84:	e9 97 ed ff ff       	jmp    ffffffff80200a20 <vga_print>
ffffffff80201c89:	0f 1f 80 00 00 00 00 	nopl   0x0(%rax)

ffffffff80201c90 <tarfs_dir>:
ffffffff80201c90:	48 83 3d b8 69 00 00 	cmpq   $0x0,0x69b8(%rip)        # ffffffff80208650 <ramdisk_base>
ffffffff80201c97:	00 
ffffffff80201c98:	0f 84 d5 00 00 00    	je     ffffffff80201d73 <tarfs_dir+0xe3>
ffffffff80201c9e:	41 54                	push   %r12
ffffffff80201ca0:	48 c7 c7 2c 4b 20 80 	mov    $0xffffffff80204b2c,%rdi
ffffffff80201ca7:	55                   	push   %rbp
ffffffff80201ca8:	53                   	push   %rbx
ffffffff80201ca9:	e8 72 ed ff ff       	call   ffffffff80200a20 <vga_print>
ffffffff80201cae:	48 83 3d 92 69 00 00 	cmpq   $0x0,0x6992(%rip)        # ffffffff80208648 <ramdisk_size>
ffffffff80201cb5:	00 
ffffffff80201cb6:	0f 84 a7 00 00 00    	je     ffffffff80201d63 <tarfs_dir+0xd3>
ffffffff80201cbc:	45 31 e4             	xor    %r12d,%r12d
ffffffff80201cbf:	31 ed                	xor    %ebp,%ebp
ffffffff80201cc1:	66 66 2e 0f 1f 84 00 	data16 cs nopw 0x0(%rax,%rax,1)
ffffffff80201cc8:	00 00 00 00 
ffffffff80201ccc:	0f 1f 40 00          	nopl   0x0(%rax)
ffffffff80201cd0:	48 8b 3d 79 69 00 00 	mov    0x6979(%rip),%rdi        # ffffffff80208650 <ramdisk_base>
ffffffff80201cd7:	48 01 ef             	add    %rbp,%rdi
ffffffff80201cda:	80 3f 00             	cmpb   $0x0,(%rdi)
ffffffff80201cdd:	74 6f                	je     ffffffff80201d4e <tarfs_dir+0xbe>
ffffffff80201cdf:	48 8d 57 7c          	lea    0x7c(%rdi),%rdx
ffffffff80201ce3:	48 8d b7 87 00 00 00 	lea    0x87(%rdi),%rsi
ffffffff80201cea:	31 db                	xor    %ebx,%ebx
ffffffff80201cec:	0f 1f 40 00          	nopl   0x0(%rax)
ffffffff80201cf0:	0f be 02             	movsbl (%rdx),%eax
ffffffff80201cf3:	84 c0                	test   %al,%al
ffffffff80201cf5:	74 1a                	je     ffffffff80201d11 <tarfs_dir+0x81>
ffffffff80201cf7:	8d 48 d0             	lea    -0x30(%rax),%ecx
ffffffff80201cfa:	80 f9 07             	cmp    $0x7,%cl
ffffffff80201cfd:	77 09                	ja     ffffffff80201d08 <tarfs_dir+0x78>
ffffffff80201cff:	83 e8 30             	sub    $0x30,%eax
ffffffff80201d02:	48 98                	cltq
ffffffff80201d04:	48 8d 1c d8          	lea    (%rax,%rbx,8),%rbx
ffffffff80201d08:	48 83 c2 01          	add    $0x1,%rdx
ffffffff80201d0c:	48 39 f2             	cmp    %rsi,%rdx
ffffffff80201d0f:	75 df                	jne    ffffffff80201cf0 <tarfs_dir+0x60>
ffffffff80201d11:	80 bf 9c 00 00 00 35 	cmpb   $0x35,0x9c(%rdi)
ffffffff80201d18:	74 15                	je     ffffffff80201d2f <tarfs_dir+0x9f>
ffffffff80201d1a:	e8 01 ed ff ff       	call   ffffffff80200a20 <vga_print>
ffffffff80201d1f:	48 c7 c7 3d 4b 20 80 	mov    $0xffffffff80204b3d,%rdi
ffffffff80201d26:	41 83 c4 01          	add    $0x1,%r12d
ffffffff80201d2a:	e8 f1 ec ff ff       	call   ffffffff80200a20 <vga_print>
ffffffff80201d2f:	48 81 c3 ff 01 00 00 	add    $0x1ff,%rbx
ffffffff80201d36:	48 81 e3 00 fe ff ff 	and    $0xfffffffffffffe00,%rbx
ffffffff80201d3d:	48 8d ac 1d 00 02 00 	lea    0x200(%rbp,%rbx,1),%rbp
ffffffff80201d44:	00 
ffffffff80201d45:	48 3b 2d fc 68 00 00 	cmp    0x68fc(%rip),%rbp        # ffffffff80208648 <ramdisk_size>
ffffffff80201d4c:	72 82                	jb     ffffffff80201cd0 <tarfs_dir+0x40>
ffffffff80201d4e:	45 85 e4             	test   %r12d,%r12d
ffffffff80201d51:	74 10                	je     ffffffff80201d63 <tarfs_dir+0xd3>
ffffffff80201d53:	5b                   	pop    %rbx
ffffffff80201d54:	48 c7 c7 7b 4b 20 80 	mov    $0xffffffff80204b7b,%rdi
ffffffff80201d5b:	5d                   	pop    %rbp
ffffffff80201d5c:	41 5c                	pop    %r12
ffffffff80201d5e:	e9 bd ec ff ff       	jmp    ffffffff80200a20 <vga_print>
ffffffff80201d63:	5b                   	pop    %rbx
ffffffff80201d64:	48 c7 c7 4c 4b 20 80 	mov    $0xffffffff80204b4c,%rdi
ffffffff80201d6b:	5d                   	pop    %rbp
ffffffff80201d6c:	41 5c                	pop    %r12
ffffffff80201d6e:	e9 ad ec ff ff       	jmp    ffffffff80200a20 <vga_print>
ffffffff80201d73:	48 c7 c7 f8 4d 20 80 	mov    $0xffffffff80204df8,%rdi
ffffffff80201d7a:	e9 a1 ec ff ff       	jmp    ffffffff80200a20 <vga_print>
ffffffff80201d7f:	90                   	nop

ffffffff80201d80 <tarfs_type>:
ffffffff80201d80:	4c 8b 15 c9 68 00 00 	mov    0x68c9(%rip),%r10        # ffffffff80208650 <ramdisk_base>
ffffffff80201d87:	4d 85 d2             	test   %r10,%r10
ffffffff80201d8a:	0f 84 2e 01 00 00    	je     ffffffff80201ebe <tarfs_type+0x13e>
ffffffff80201d90:	80 3f 20             	cmpb   $0x20,(%rdi)
ffffffff80201d93:	49 89 f8             	mov    %rdi,%r8
ffffffff80201d96:	75 12                	jne    ffffffff80201daa <tarfs_type+0x2a>
ffffffff80201d98:	0f 1f 84 00 00 00 00 	nopl   0x0(%rax,%rax,1)
ffffffff80201d9f:	00 
ffffffff80201da0:	49 83 c0 01          	add    $0x1,%r8
ffffffff80201da4:	41 80 38 20          	cmpb   $0x20,(%r8)
ffffffff80201da8:	74 f6                	je     ffffffff80201da0 <tarfs_type+0x20>
ffffffff80201daa:	4c 8b 1d 97 68 00 00 	mov    0x6897(%rip),%r11        # ffffffff80208648 <ramdisk_size>
ffffffff80201db1:	4d 85 db             	test   %r11,%r11
ffffffff80201db4:	0f 84 10 01 00 00    	je     ffffffff80201eca <tarfs_type+0x14a>
ffffffff80201dba:	45 31 c9             	xor    %r9d,%r9d
ffffffff80201dbd:	4b 8d 3c 0a          	lea    (%r10,%r9,1),%rdi
ffffffff80201dc1:	0f b6 0f             	movzbl (%rdi),%ecx
ffffffff80201dc4:	84 c9                	test   %cl,%cl
ffffffff80201dc6:	0f 84 fe 00 00 00    	je     ffffffff80201eca <tarfs_type+0x14a>
ffffffff80201dcc:	55                   	push   %rbp
ffffffff80201dcd:	53                   	push   %rbx
ffffffff80201dce:	48 83 ec 08          	sub    $0x8,%rsp
ffffffff80201dd2:	66 66 2e 0f 1f 84 00 	data16 cs nopw 0x0(%rax,%rax,1)
ffffffff80201dd9:	00 00 00 00 
ffffffff80201ddd:	0f 1f 00             	nopl   (%rax)
ffffffff80201de0:	48 8d 57 7c          	lea    0x7c(%rdi),%rdx
ffffffff80201de4:	48 8d af 87 00 00 00 	lea    0x87(%rdi),%rbp
ffffffff80201deb:	31 f6                	xor    %esi,%esi
ffffffff80201ded:	0f 1f 00             	nopl   (%rax)
ffffffff80201df0:	0f be 02             	movsbl (%rdx),%eax
ffffffff80201df3:	84 c0                	test   %al,%al
ffffffff80201df5:	74 1a                	je     ffffffff80201e11 <tarfs_type+0x91>
ffffffff80201df7:	8d 58 d0             	lea    -0x30(%rax),%ebx
ffffffff80201dfa:	80 fb 07             	cmp    $0x7,%bl
ffffffff80201dfd:	77 09                	ja     ffffffff80201e08 <tarfs_type+0x88>
ffffffff80201dff:	83 e8 30             	sub    $0x30,%eax
ffffffff80201e02:	48 98                	cltq
ffffffff80201e04:	48 8d 34 f0          	lea    (%rax,%rsi,8),%rsi
ffffffff80201e08:	48 83 c2 01          	add    $0x1,%rdx
ffffffff80201e0c:	48 39 d5             	cmp    %rdx,%rbp
ffffffff80201e0f:	75 df                	jne    ffffffff80201df0 <tarfs_type+0x70>
ffffffff80201e11:	48 89 fa             	mov    %rdi,%rdx
ffffffff80201e14:	4c 89 c0             	mov    %r8,%rax
ffffffff80201e17:	eb 17                	jmp    ffffffff80201e30 <tarfs_type+0xb0>
ffffffff80201e19:	0f 1f 80 00 00 00 00 	nopl   0x0(%rax)
ffffffff80201e20:	0f b6 4a 01          	movzbl 0x1(%rdx),%ecx
ffffffff80201e24:	48 83 c2 01          	add    $0x1,%rdx
ffffffff80201e28:	48 83 c0 01          	add    $0x1,%rax
ffffffff80201e2c:	84 c9                	test   %cl,%cl
ffffffff80201e2e:	74 40                	je     ffffffff80201e70 <tarfs_type+0xf0>
ffffffff80201e30:	38 08                	cmp    %cl,(%rax)
ffffffff80201e32:	74 ec                	je     ffffffff80201e20 <tarfs_type+0xa0>
ffffffff80201e34:	3a 08                	cmp    (%rax),%cl
ffffffff80201e36:	74 3e                	je     ffffffff80201e76 <tarfs_type+0xf6>
ffffffff80201e38:	48 81 c6 ff 01 00 00 	add    $0x1ff,%rsi
ffffffff80201e3f:	48 81 e6 00 fe ff ff 	and    $0xfffffffffffffe00,%rsi
ffffffff80201e46:	4d 8d 8c 31 00 02 00 	lea    0x200(%r9,%rsi,1),%r9
ffffffff80201e4d:	00 
ffffffff80201e4e:	4d 39 d9             	cmp    %r11,%r9
ffffffff80201e51:	73 0b                	jae    ffffffff80201e5e <tarfs_type+0xde>
ffffffff80201e53:	4b 8d 3c 0a          	lea    (%r10,%r9,1),%rdi
ffffffff80201e57:	0f b6 0f             	movzbl (%rdi),%ecx
ffffffff80201e5a:	84 c9                	test   %cl,%cl
ffffffff80201e5c:	75 82                	jne    ffffffff80201de0 <tarfs_type+0x60>
ffffffff80201e5e:	48 83 c4 08          	add    $0x8,%rsp
ffffffff80201e62:	48 c7 c7 20 4e 20 80 	mov    $0xffffffff80204e20,%rdi
ffffffff80201e69:	5b                   	pop    %rbx
ffffffff80201e6a:	5d                   	pop    %rbp
ffffffff80201e6b:	e9 b0 eb ff ff       	jmp    ffffffff80200a20 <vga_print>
ffffffff80201e70:	31 c9                	xor    %ecx,%ecx
ffffffff80201e72:	3a 08                	cmp    (%rax),%cl
ffffffff80201e74:	75 c2                	jne    ffffffff80201e38 <tarfs_type+0xb8>
ffffffff80201e76:	48 89 fb             	mov    %rdi,%rbx
ffffffff80201e79:	48 8d 2c 37          	lea    (%rdi,%rsi,1),%rbp
ffffffff80201e7d:	48 85 f6             	test   %rsi,%rsi
ffffffff80201e80:	74 2a                	je     ffffffff80201eac <tarfs_type+0x12c>
ffffffff80201e82:	66 66 2e 0f 1f 84 00 	data16 cs nopw 0x0(%rax,%rax,1)
ffffffff80201e89:	00 00 00 00 
ffffffff80201e8d:	0f 1f 00             	nopl   (%rax)
ffffffff80201e90:	0f b6 83 00 02 00 00 	movzbl 0x200(%rbx),%eax
ffffffff80201e97:	3c 0d                	cmp    $0xd,%al
ffffffff80201e99:	74 08                	je     ffffffff80201ea3 <tarfs_type+0x123>
ffffffff80201e9b:	0f be f8             	movsbl %al,%edi
ffffffff80201e9e:	e8 3d e9 ff ff       	call   ffffffff802007e0 <vga_putchar>
ffffffff80201ea3:	48 83 c3 01          	add    $0x1,%rbx
ffffffff80201ea7:	48 39 eb             	cmp    %rbp,%rbx
ffffffff80201eaa:	75 e4                	jne    ffffffff80201e90 <tarfs_type+0x110>
ffffffff80201eac:	48 83 c4 08          	add    $0x8,%rsp
ffffffff80201eb0:	48 c7 c7 7b 4b 20 80 	mov    $0xffffffff80204b7b,%rdi
ffffffff80201eb7:	5b                   	pop    %rbx
ffffffff80201eb8:	5d                   	pop    %rbp
ffffffff80201eb9:	e9 62 eb ff ff       	jmp    ffffffff80200a20 <vga_print>
ffffffff80201ebe:	48 c7 c7 f8 4d 20 80 	mov    $0xffffffff80204df8,%rdi
ffffffff80201ec5:	e9 56 eb ff ff       	jmp    ffffffff80200a20 <vga_print>
ffffffff80201eca:	48 c7 c7 20 4e 20 80 	mov    $0xffffffff80204e20,%rdi
ffffffff80201ed1:	e9 4a eb ff ff       	jmp    ffffffff80200a20 <vga_print>
ffffffff80201ed6:	66 2e 0f 1f 84 00 00 	cs nopw 0x0(%rax,%rax,1)
ffffffff80201edd:	00 00 00 

ffffffff80201ee0 <ata_read_sector>:
ffffffff80201ee0:	41 89 f8             	mov    %edi,%r8d
ffffffff80201ee3:	b9 f7 01 00 00       	mov    $0x1f7,%ecx
ffffffff80201ee8:	48 89 f7             	mov    %rsi,%rdi
ffffffff80201eeb:	0f 1f 44 00 00       	nopl   0x0(%rax,%rax,1)
ffffffff80201ef0:	89 ca                	mov    %ecx,%edx
ffffffff80201ef2:	ec                   	in     (%dx),%al
ffffffff80201ef3:	84 c0                	test   %al,%al
ffffffff80201ef5:	78 f9                	js     ffffffff80201ef0 <ata_read_sector+0x10>
ffffffff80201ef7:	a8 40                	test   $0x40,%al
ffffffff80201ef9:	74 f5                	je     ffffffff80201ef0 <ata_read_sector+0x10>
ffffffff80201efb:	44 89 c0             	mov    %r8d,%eax
ffffffff80201efe:	ba f6 01 00 00       	mov    $0x1f6,%edx
ffffffff80201f03:	c1 e8 18             	shr    $0x18,%eax
ffffffff80201f06:	83 e0 0f             	and    $0xf,%eax
ffffffff80201f09:	83 c8 e0             	or     $0xffffffe0,%eax
ffffffff80201f0c:	ee                   	out    %al,(%dx)
ffffffff80201f0d:	b8 01 00 00 00       	mov    $0x1,%eax
ffffffff80201f12:	ba f2 01 00 00       	mov    $0x1f2,%edx
ffffffff80201f17:	ee                   	out    %al,(%dx)
ffffffff80201f18:	ba f3 01 00 00       	mov    $0x1f3,%edx
ffffffff80201f1d:	44 89 c0             	mov    %r8d,%eax
ffffffff80201f20:	ee                   	out    %al,(%dx)
ffffffff80201f21:	44 89 c0             	mov    %r8d,%eax
ffffffff80201f24:	ba f4 01 00 00       	mov    $0x1f4,%edx
ffffffff80201f29:	c1 e8 08             	shr    $0x8,%eax
ffffffff80201f2c:	ee                   	out    %al,(%dx)
ffffffff80201f2d:	44 89 c0             	mov    %r8d,%eax
ffffffff80201f30:	ba f5 01 00 00       	mov    $0x1f5,%edx
ffffffff80201f35:	c1 e8 10             	shr    $0x10,%eax
ffffffff80201f38:	ee                   	out    %al,(%dx)
ffffffff80201f39:	b8 20 00 00 00       	mov    $0x20,%eax
ffffffff80201f3e:	89 ca                	mov    %ecx,%edx
ffffffff80201f40:	ee                   	out    %al,(%dx)
ffffffff80201f41:	ba f7 01 00 00       	mov    $0x1f7,%edx
ffffffff80201f46:	66 2e 0f 1f 84 00 00 	cs nopw 0x0(%rax,%rax,1)
ffffffff80201f4d:	00 00 00 
ffffffff80201f50:	ec                   	in     (%dx),%al
ffffffff80201f51:	84 c0                	test   %al,%al
ffffffff80201f53:	78 fb                	js     ffffffff80201f50 <ata_read_sector+0x70>
ffffffff80201f55:	a8 40                	test   $0x40,%al
ffffffff80201f57:	74 f7                	je     ffffffff80201f50 <ata_read_sector+0x70>
ffffffff80201f59:	b9 00 01 00 00       	mov    $0x100,%ecx
ffffffff80201f5e:	ba f0 01 00 00       	mov    $0x1f0,%edx
ffffffff80201f63:	66 f3 6d             	rep insw (%dx),%es:(%rdi)
ffffffff80201f66:	c3                   	ret
ffffffff80201f67:	66 0f 1f 84 00 00 00 	nopw   0x0(%rax,%rax,1)
ffffffff80201f6e:	00 00 

ffffffff80201f70 <ata_write_sector>:
ffffffff80201f70:	b9 f7 01 00 00       	mov    $0x1f7,%ecx
ffffffff80201f75:	66 66 2e 0f 1f 84 00 	data16 cs nopw 0x0(%rax,%rax,1)
ffffffff80201f7c:	00 00 00 00 
ffffffff80201f80:	89 ca                	mov    %ecx,%edx
ffffffff80201f82:	ec                   	in     (%dx),%al
ffffffff80201f83:	84 c0                	test   %al,%al
ffffffff80201f85:	78 f9                	js     ffffffff80201f80 <ata_write_sector+0x10>
ffffffff80201f87:	a8 40                	test   $0x40,%al
ffffffff80201f89:	74 f5                	je     ffffffff80201f80 <ata_write_sector+0x10>
ffffffff80201f8b:	89 f8                	mov    %edi,%eax
ffffffff80201f8d:	ba f6 01 00 00       	mov    $0x1f6,%edx
ffffffff80201f92:	c1 e8 18             	shr    $0x18,%eax
ffffffff80201f95:	83 e0 0f             	and    $0xf,%eax
ffffffff80201f98:	83 c8 e0             	or     $0xffffffe0,%eax
ffffffff80201f9b:	ee                   	out    %al,(%dx)
ffffffff80201f9c:	b8 01 00 00 00       	mov    $0x1,%eax
ffffffff80201fa1:	ba f2 01 00 00       	mov    $0x1f2,%edx
ffffffff80201fa6:	ee                   	out    %al,(%dx)
ffffffff80201fa7:	ba f3 01 00 00       	mov    $0x1f3,%edx
ffffffff80201fac:	89 f8                	mov    %edi,%eax
ffffffff80201fae:	ee                   	out    %al,(%dx)
ffffffff80201faf:	89 f8                	mov    %edi,%eax
ffffffff80201fb1:	ba f4 01 00 00       	mov    $0x1f4,%edx
ffffffff80201fb6:	c1 e8 08             	shr    $0x8,%eax
ffffffff80201fb9:	ee                   	out    %al,(%dx)
ffffffff80201fba:	89 f8                	mov    %edi,%eax
ffffffff80201fbc:	ba f5 01 00 00       	mov    $0x1f5,%edx
ffffffff80201fc1:	c1 e8 10             	shr    $0x10,%eax
ffffffff80201fc4:	ee                   	out    %al,(%dx)
ffffffff80201fc5:	b8 30 00 00 00       	mov    $0x30,%eax
ffffffff80201fca:	89 ca                	mov    %ecx,%edx
ffffffff80201fcc:	ee                   	out    %al,(%dx)
ffffffff80201fcd:	bf f7 01 00 00       	mov    $0x1f7,%edi
ffffffff80201fd2:	66 66 2e 0f 1f 84 00 	data16 cs nopw 0x0(%rax,%rax,1)
ffffffff80201fd9:	00 00 00 00 
ffffffff80201fdd:	0f 1f 00             	nopl   (%rax)
ffffffff80201fe0:	89 fa                	mov    %edi,%edx
ffffffff80201fe2:	ec                   	in     (%dx),%al
ffffffff80201fe3:	84 c0                	test   %al,%al
ffffffff80201fe5:	78 f9                	js     ffffffff80201fe0 <ata_write_sector+0x70>
ffffffff80201fe7:	a8 40                	test   $0x40,%al
ffffffff80201fe9:	74 f5                	je     ffffffff80201fe0 <ata_write_sector+0x70>
ffffffff80201feb:	b9 00 01 00 00       	mov    $0x100,%ecx
ffffffff80201ff0:	ba f0 01 00 00       	mov    $0x1f0,%edx
ffffffff80201ff5:	66 f3 6f             	rep outsw %ds:(%rsi),(%dx)
ffffffff80201ff8:	b8 e7 ff ff ff       	mov    $0xffffffe7,%eax
ffffffff80201ffd:	89 fa                	mov    %edi,%edx
ffffffff80201fff:	ee                   	out    %al,(%dx)
ffffffff80202000:	ba f7 01 00 00       	mov    $0x1f7,%edx
ffffffff80202005:	66 66 2e 0f 1f 84 00 	data16 cs nopw 0x0(%rax,%rax,1)
ffffffff8020200c:	00 00 00 00 
ffffffff80202010:	ec                   	in     (%dx),%al
ffffffff80202011:	84 c0                	test   %al,%al
ffffffff80202013:	78 fb                	js     ffffffff80202010 <ata_write_sector+0xa0>
ffffffff80202015:	a8 40                	test   $0x40,%al
ffffffff80202017:	74 f7                	je     ffffffff80202010 <ata_write_sector+0xa0>
ffffffff80202019:	c3                   	ret
ffffffff8020201a:	66 2e 0f 1f 84 00 00 	cs nopw 0x0(%rax,%rax,1)
ffffffff80202021:	00 00 00 
ffffffff80202024:	66 2e 0f 1f 84 00 00 	cs nopw 0x0(%rax,%rax,1)
ffffffff8020202b:	00 00 00 
ffffffff8020202e:	66 2e 0f 1f 84 00 00 	cs nopw 0x0(%rax,%rax,1)
ffffffff80202035:	00 00 00 
ffffffff80202038:	0f 1f 84 00 00 00 00 	nopl   0x0(%rax,%rax,1)
ffffffff8020203f:	00 

ffffffff80202040 <format_fat_name>:
ffffffff80202040:	c6 06 20             	movb   $0x20,(%rsi)
ffffffff80202043:	48 89 f9             	mov    %rdi,%rcx
ffffffff80202046:	49 89 f0             	mov    %rsi,%r8
ffffffff80202049:	48 8d 56 0b          	lea    0xb(%rsi),%rdx
ffffffff8020204d:	48 8d 46 01          	lea    0x1(%rsi),%rax
ffffffff80202051:	66 66 2e 0f 1f 84 00 	data16 cs nopw 0x0(%rax,%rax,1)
ffffffff80202058:	00 00 00 00 
ffffffff8020205c:	0f 1f 40 00          	nopl   0x0(%rax)
ffffffff80202060:	c6 00 20             	movb   $0x20,(%rax)
ffffffff80202063:	48 83 c0 02          	add    $0x2,%rax
ffffffff80202067:	c6 40 ff 20          	movb   $0x20,-0x1(%rax)
ffffffff8020206b:	48 39 d0             	cmp    %rdx,%rax
ffffffff8020206e:	75 f0                	jne    ffffffff80202060 <format_fat_name+0x20>
ffffffff80202070:	0f b6 01             	movzbl (%rcx),%eax
ffffffff80202073:	84 c0                	test   %al,%al
ffffffff80202075:	0f 84 bd 00 00 00    	je     ffffffff80202138 <format_fat_name+0xf8>
ffffffff8020207b:	3c 2e                	cmp    $0x2e,%al
ffffffff8020207d:	0f 84 b5 00 00 00    	je     ffffffff80202138 <format_fat_name+0xf8>
ffffffff80202083:	ba 01 00 00 00       	mov    $0x1,%edx
ffffffff80202088:	0f 1f 84 00 00 00 00 	nopl   0x0(%rax,%rax,1)
ffffffff8020208f:	00 
ffffffff80202090:	8d 78 9f             	lea    -0x61(%rax),%edi
ffffffff80202093:	8d 70 e0             	lea    -0x20(%rax),%esi
ffffffff80202096:	40 80 ff 1a          	cmp    $0x1a,%dil
ffffffff8020209a:	0f 42 c6             	cmovb  %esi,%eax
ffffffff8020209d:	41 88 44 10 ff       	mov    %al,-0x1(%r8,%rdx,1)
ffffffff802020a2:	0f b6 04 11          	movzbl (%rcx,%rdx,1),%eax
ffffffff802020a6:	84 c0                	test   %al,%al
ffffffff802020a8:	0f 84 82 00 00 00    	je     ffffffff80202130 <format_fat_name+0xf0>
ffffffff802020ae:	3c 2e                	cmp    $0x2e,%al
ffffffff802020b0:	74 7e                	je     ffffffff80202130 <format_fat_name+0xf0>
ffffffff802020b2:	48 83 c2 01          	add    $0x1,%rdx
ffffffff802020b6:	48 83 fa 09          	cmp    $0x9,%rdx
ffffffff802020ba:	75 d4                	jne    ffffffff80202090 <format_fat_name+0x50>
ffffffff802020bc:	0f 1f 40 00          	nopl   0x0(%rax)
ffffffff802020c0:	0f b6 04 11          	movzbl (%rcx,%rdx,1),%eax
ffffffff802020c4:	48 89 d6             	mov    %rdx,%rsi
ffffffff802020c7:	48 83 c2 01          	add    $0x1,%rdx
ffffffff802020cb:	84 c0                	test   %al,%al
ffffffff802020cd:	74 04                	je     ffffffff802020d3 <format_fat_name+0x93>
ffffffff802020cf:	3c 2e                	cmp    $0x2e,%al
ffffffff802020d1:	75 ed                	jne    ffffffff802020c0 <format_fat_name+0x80>
ffffffff802020d3:	3c 2e                	cmp    $0x2e,%al
ffffffff802020d5:	74 09                	je     ffffffff802020e0 <format_fat_name+0xa0>
ffffffff802020d7:	c3                   	ret
ffffffff802020d8:	0f 1f 84 00 00 00 00 	nopl   0x0(%rax,%rax,1)
ffffffff802020df:	00 
ffffffff802020e0:	8d 46 01             	lea    0x1(%rsi),%eax
ffffffff802020e3:	48 98                	cltq
ffffffff802020e5:	0f b6 04 01          	movzbl (%rcx,%rax,1),%eax
ffffffff802020e9:	84 c0                	test   %al,%al
ffffffff802020eb:	74 ea                	je     ffffffff802020d7 <format_fat_name+0x97>
ffffffff802020ed:	48 63 f6             	movslq %esi,%rsi
ffffffff802020f0:	ba 09 00 00 00       	mov    $0x9,%edx
ffffffff802020f5:	48 01 f1             	add    %rsi,%rcx
ffffffff802020f8:	8d 78 9f             	lea    -0x61(%rax),%edi
ffffffff802020fb:	8d 70 e0             	lea    -0x20(%rax),%esi
ffffffff802020fe:	40 80 ff 1a          	cmp    $0x1a,%dil
ffffffff80202102:	0f 42 c6             	cmovb  %esi,%eax
ffffffff80202105:	48 83 fa 0b          	cmp    $0xb,%rdx
ffffffff80202109:	40 0f 95 c7          	setne  %dil
ffffffff8020210d:	41 88 44 10 ff       	mov    %al,-0x1(%r8,%rdx,1)
ffffffff80202112:	0f b6 44 11 f9       	movzbl -0x7(%rcx,%rdx,1),%eax
ffffffff80202117:	84 c0                	test   %al,%al
ffffffff80202119:	40 0f 95 c6          	setne  %sil
ffffffff8020211d:	48 83 c2 01          	add    $0x1,%rdx
ffffffff80202121:	40 84 f7             	test   %sil,%dil
ffffffff80202124:	75 d2                	jne    ffffffff802020f8 <format_fat_name+0xb8>
ffffffff80202126:	c3                   	ret
ffffffff80202127:	66 0f 1f 84 00 00 00 	nopw   0x0(%rax,%rax,1)
ffffffff8020212e:	00 00 
ffffffff80202130:	89 d6                	mov    %edx,%esi
ffffffff80202132:	3c 2e                	cmp    $0x2e,%al
ffffffff80202134:	75 a1                	jne    ffffffff802020d7 <format_fat_name+0x97>
ffffffff80202136:	eb a8                	jmp    ffffffff802020e0 <format_fat_name+0xa0>
ffffffff80202138:	31 f6                	xor    %esi,%esi
ffffffff8020213a:	eb 97                	jmp    ffffffff802020d3 <format_fat_name+0x93>
ffffffff8020213c:	0f 1f 40 00          	nopl   0x0(%rax)

ffffffff80202140 <fat16_set_fat_entry>:
ffffffff80202140:	41 55                	push   %r13
ffffffff80202142:	0f b7 ff             	movzwl %di,%edi
ffffffff80202145:	41 54                	push   %r12
ffffffff80202147:	41 89 f4             	mov    %esi,%r12d
ffffffff8020214a:	55                   	push   %rbp
ffffffff8020214b:	8d 2c 3f             	lea    (%rdi,%rdi,1),%ebp
ffffffff8020214e:	c1 ef 08             	shr    $0x8,%edi
ffffffff80202151:	53                   	push   %rbx
ffffffff80202152:	81 e5 fe 01 00 00    	and    $0x1fe,%ebp
ffffffff80202158:	48 81 ec 08 02 00 00 	sub    $0x208,%rsp
ffffffff8020215f:	0f b7 1d 28 65 00 00 	movzwl 0x6528(%rip),%ebx        # ffffffff8020868e <bpb+0xe>
ffffffff80202166:	48 89 e6             	mov    %rsp,%rsi
ffffffff80202169:	01 fb                	add    %edi,%ebx
ffffffff8020216b:	89 df                	mov    %ebx,%edi
ffffffff8020216d:	e8 6e fd ff ff       	call   ffffffff80201ee0 <ata_read_sector>
ffffffff80202172:	66 44 89 24 2c       	mov    %r12w,(%rsp,%rbp,1)
ffffffff80202177:	48 89 e6             	mov    %rsp,%rsi
ffffffff8020217a:	89 df                	mov    %ebx,%edi
ffffffff8020217c:	e8 ef fd ff ff       	call   ffffffff80201f70 <ata_write_sector>
ffffffff80202181:	80 3d 08 65 00 00 01 	cmpb   $0x1,0x6508(%rip)        # ffffffff80208690 <bpb+0x10>
ffffffff80202188:	76 11                	jbe    ffffffff8020219b <fat16_set_fat_entry+0x5b>
ffffffff8020218a:	0f b7 3d 05 65 00 00 	movzwl 0x6505(%rip),%edi        # ffffffff80208696 <bpb+0x16>
ffffffff80202191:	48 89 e6             	mov    %rsp,%rsi
ffffffff80202194:	01 df                	add    %ebx,%edi
ffffffff80202196:	e8 d5 fd ff ff       	call   ffffffff80201f70 <ata_write_sector>
ffffffff8020219b:	48 81 c4 08 02 00 00 	add    $0x208,%rsp
ffffffff802021a2:	5b                   	pop    %rbx
ffffffff802021a3:	5d                   	pop    %rbp
ffffffff802021a4:	41 5c                	pop    %r12
ffffffff802021a6:	41 5d                	pop    %r13
ffffffff802021a8:	c3                   	ret
ffffffff802021a9:	0f 1f 80 00 00 00 00 	nopl   0x0(%rax)

ffffffff802021b0 <fat16_init>:
ffffffff802021b0:	53                   	push   %rbx
ffffffff802021b1:	31 ff                	xor    %edi,%edi
ffffffff802021b3:	48 81 ec 00 02 00 00 	sub    $0x200,%rsp
ffffffff802021ba:	48 89 e6             	mov    %rsp,%rsi
ffffffff802021bd:	e8 1e fd ff ff       	call   ffffffff80201ee0 <ata_read_sector>
ffffffff802021c2:	66 81 bc 24 fe 01 00 	cmpw   $0xaa55,0x1fe(%rsp)
ffffffff802021c9:	00 55 aa 
ffffffff802021cc:	75 5a                	jne    ffffffff80202228 <fat16_init+0x78>
ffffffff802021ce:	48 89 e6             	mov    %rsp,%rsi
ffffffff802021d1:	48 c7 c7 80 86 20 80 	mov    $0xffffffff80208680,%rdi
ffffffff802021d8:	b9 40 00 00 00       	mov    $0x40,%ecx
ffffffff802021dd:	f3 48 a5             	rep movsq %ds:(%rsi),%es:(%rdi)
ffffffff802021e0:	0f b7 15 af 64 00 00 	movzwl 0x64af(%rip),%edx        # ffffffff80208696 <bpb+0x16>
ffffffff802021e7:	0f b6 05 a2 64 00 00 	movzbl 0x64a2(%rip),%eax        # ffffffff80208690 <bpb+0x10>
ffffffff802021ee:	0f af c2             	imul   %edx,%eax
ffffffff802021f1:	0f b7 15 96 64 00 00 	movzwl 0x6496(%rip),%edx        # ffffffff8020868e <bpb+0xe>
ffffffff802021f8:	01 d0                	add    %edx,%eax
ffffffff802021fa:	0f b7 15 90 64 00 00 	movzwl 0x6490(%rip),%edx        # ffffffff80208691 <bpb+0x11>
ffffffff80202201:	89 05 61 64 00 00    	mov    %eax,0x6461(%rip)        # ffffffff80208668 <root_dir_sector>
ffffffff80202207:	c1 fa 04             	sar    $0x4,%edx
ffffffff8020220a:	01 d0                	add    %edx,%eax
ffffffff8020220c:	89 15 52 64 00 00    	mov    %edx,0x6452(%rip)        # ffffffff80208664 <root_dir_size>
ffffffff80202212:	89 05 48 64 00 00    	mov    %eax,0x6448(%rip)        # ffffffff80208660 <data_sector>
ffffffff80202218:	48 81 c4 00 02 00 00 	add    $0x200,%rsp
ffffffff8020221f:	5b                   	pop    %rbx
ffffffff80202220:	c3                   	ret
ffffffff80202221:	0f 1f 80 00 00 00 00 	nopl   0x0(%rax)
ffffffff80202228:	48 c7 c7 58 4e 20 80 	mov    $0xffffffff80204e58,%rdi
ffffffff8020222f:	e8 ec e7 ff ff       	call   ffffffff80200a20 <vga_print>
ffffffff80202234:	48 81 c4 00 02 00 00 	add    $0x200,%rsp
ffffffff8020223b:	5b                   	pop    %rbx
ffffffff8020223c:	c3                   	ret
ffffffff8020223d:	0f 1f 00             	nopl   (%rax)

ffffffff80202240 <fat16_dir>:
ffffffff80202240:	41 57                	push   %r15
ffffffff80202242:	48 c7 c7 64 4b 20 80 	mov    $0xffffffff80204b64,%rdi
ffffffff80202249:	41 56                	push   %r14
ffffffff8020224b:	41 55                	push   %r13
ffffffff8020224d:	41 54                	push   %r12
ffffffff8020224f:	55                   	push   %rbp
ffffffff80202250:	53                   	push   %rbx
ffffffff80202251:	48 81 ec 28 02 00 00 	sub    $0x228,%rsp
ffffffff80202258:	e8 c3 e7 ff ff       	call   ffffffff80200a20 <vga_print>
ffffffff8020225d:	8b 05 01 64 00 00    	mov    0x6401(%rip),%eax        # ffffffff80208664 <root_dir_size>
ffffffff80202263:	85 c0                	test   %eax,%eax
ffffffff80202265:	0f 84 ad 01 00 00    	je     ffffffff80202418 <fat16_dir+0x1d8>
ffffffff8020226b:	c7 44 24 0c 00 00 00 	movl   $0x0,0xc(%rsp)
ffffffff80202272:	00 
ffffffff80202273:	31 ed                	xor    %ebp,%ebp
ffffffff80202275:	4c 8d a4 24 28 02 00 	lea    0x228(%rsp),%r12
ffffffff8020227c:	00 
ffffffff8020227d:	41 bd cd cc cc cc    	mov    $0xcccccccd,%r13d
ffffffff80202283:	8b 7c 24 0c          	mov    0xc(%rsp),%edi
ffffffff80202287:	48 8d 74 24 20       	lea    0x20(%rsp),%rsi
ffffffff8020228c:	03 3d d6 63 00 00    	add    0x63d6(%rip),%edi        # ffffffff80208668 <root_dir_sector>
ffffffff80202292:	4c 8d 7c 24 28       	lea    0x28(%rsp),%r15
ffffffff80202297:	e8 44 fc ff ff       	call   ffffffff80201ee0 <ata_read_sector>
ffffffff8020229c:	0f 1f 40 00          	nopl   0x0(%rax)
ffffffff802022a0:	41 0f b6 57 f8       	movzbl -0x8(%r15),%edx
ffffffff802022a5:	84 d2                	test   %dl,%dl
ffffffff802022a7:	74 77                	je     ffffffff80202320 <fat16_dir+0xe0>
ffffffff802022a9:	80 fa e5             	cmp    $0xe5,%dl
ffffffff802022ac:	74 49                	je     ffffffff802022f7 <fat16_dir+0xb7>
ffffffff802022ae:	41 80 7f 03 0f       	cmpb   $0xf,0x3(%r15)
ffffffff802022b3:	74 42                	je     ffffffff802022f7 <fat16_dir+0xb7>
ffffffff802022b5:	49 8d 5f f8          	lea    -0x8(%r15),%rbx
ffffffff802022b9:	0f 1f 80 00 00 00 00 	nopl   0x0(%rax)
ffffffff802022c0:	0f be 3b             	movsbl (%rbx),%edi
ffffffff802022c3:	40 80 ff 20          	cmp    $0x20,%dil
ffffffff802022c7:	74 05                	je     ffffffff802022ce <fat16_dir+0x8e>
ffffffff802022c9:	e8 12 e5 ff ff       	call   ffffffff802007e0 <vga_putchar>
ffffffff802022ce:	48 83 c3 01          	add    $0x1,%rbx
ffffffff802022d2:	4c 39 fb             	cmp    %r15,%rbx
ffffffff802022d5:	75 e9                	jne    ffffffff802022c0 <fat16_dir+0x80>
ffffffff802022d7:	41 80 3f 20          	cmpb   $0x20,(%r15)
ffffffff802022db:	0f 85 9f 00 00 00    	jne    ffffffff80202380 <fat16_dir+0x140>
ffffffff802022e1:	41 f6 47 03 10       	testb  $0x10,0x3(%r15)
ffffffff802022e6:	74 60                	je     ffffffff80202348 <fat16_dir+0x108>
ffffffff802022e8:	48 c7 c7 7d 4b 20 80 	mov    $0xffffffff80204b7d,%rdi
ffffffff802022ef:	e8 2c e7 ff ff       	call   ffffffff80200a20 <vga_print>
ffffffff802022f4:	83 c5 01             	add    $0x1,%ebp
ffffffff802022f7:	49 83 c7 20          	add    $0x20,%r15
ffffffff802022fb:	4d 39 e7             	cmp    %r12,%r15
ffffffff802022fe:	75 a0                	jne    ffffffff802022a0 <fat16_dir+0x60>
ffffffff80202300:	83 44 24 0c 01       	addl   $0x1,0xc(%rsp)
ffffffff80202305:	8b 44 24 0c          	mov    0xc(%rsp),%eax
ffffffff80202309:	3b 05 55 63 00 00    	cmp    0x6355(%rip),%eax        # ffffffff80208664 <root_dir_size>
ffffffff8020230f:	0f 82 6e ff ff ff    	jb     ffffffff80202283 <fat16_dir+0x43>
ffffffff80202315:	66 66 2e 0f 1f 84 00 	data16 cs nopw 0x0(%rax,%rax,1)
ffffffff8020231c:	00 00 00 00 
ffffffff80202320:	85 ed                	test   %ebp,%ebp
ffffffff80202322:	0f 84 f0 00 00 00    	je     ffffffff80202418 <fat16_dir+0x1d8>
ffffffff80202328:	48 81 c4 28 02 00 00 	add    $0x228,%rsp
ffffffff8020232f:	48 c7 c7 7b 4b 20 80 	mov    $0xffffffff80204b7b,%rdi
ffffffff80202336:	5b                   	pop    %rbx
ffffffff80202337:	5d                   	pop    %rbp
ffffffff80202338:	41 5c                	pop    %r12
ffffffff8020233a:	41 5d                	pop    %r13
ffffffff8020233c:	41 5e                	pop    %r14
ffffffff8020233e:	41 5f                	pop    %r15
ffffffff80202340:	e9 db e6 ff ff       	jmp    ffffffff80200a20 <vga_print>
ffffffff80202345:	0f 1f 00             	nopl   (%rax)
ffffffff80202348:	48 c7 c7 85 4b 20 80 	mov    $0xffffffff80204b85,%rdi
ffffffff8020234f:	e8 cc e6 ff ff       	call   ffffffff80200a20 <vga_print>
ffffffff80202354:	41 8b 4f 14          	mov    0x14(%r15),%ecx
ffffffff80202358:	85 c9                	test   %ecx,%ecx
ffffffff8020235a:	75 54                	jne    ffffffff802023b0 <fat16_dir+0x170>
ffffffff8020235c:	48 c7 c7 91 4b 20 80 	mov    $0xffffffff80204b91,%rdi
ffffffff80202363:	e8 b8 e6 ff ff       	call   ffffffff80200a20 <vga_print>
ffffffff80202368:	48 c7 c7 93 4b 20 80 	mov    $0xffffffff80204b93,%rdi
ffffffff8020236f:	e8 ac e6 ff ff       	call   ffffffff80200a20 <vga_print>
ffffffff80202374:	e9 7b ff ff ff       	jmp    ffffffff802022f4 <fat16_dir+0xb4>
ffffffff80202379:	0f 1f 80 00 00 00 00 	nopl   0x0(%rax)
ffffffff80202380:	bf 2e 00 00 00       	mov    $0x2e,%edi
ffffffff80202385:	4c 89 fb             	mov    %r15,%rbx
ffffffff80202388:	4d 8d 77 03          	lea    0x3(%r15),%r14
ffffffff8020238c:	e8 4f e4 ff ff       	call   ffffffff802007e0 <vga_putchar>
ffffffff80202391:	0f be 3b             	movsbl (%rbx),%edi
ffffffff80202394:	40 80 ff 20          	cmp    $0x20,%dil
ffffffff80202398:	74 05                	je     ffffffff8020239f <fat16_dir+0x15f>
ffffffff8020239a:	e8 41 e4 ff ff       	call   ffffffff802007e0 <vga_putchar>
ffffffff8020239f:	48 83 c3 01          	add    $0x1,%rbx
ffffffff802023a3:	4c 39 f3             	cmp    %r14,%rbx
ffffffff802023a6:	75 e9                	jne    ffffffff80202391 <fat16_dir+0x151>
ffffffff802023a8:	e9 34 ff ff ff       	jmp    ffffffff802022e1 <fat16_dir+0xa1>
ffffffff802023ad:	0f 1f 00             	nopl   (%rax)
ffffffff802023b0:	be 01 00 00 00       	mov    $0x1,%esi
ffffffff802023b5:	48 8d 5c 24 0f       	lea    0xf(%rsp),%rbx
ffffffff802023ba:	66 0f 1f 44 00 00    	nopw   0x0(%rax,%rax,1)
ffffffff802023c0:	89 ca                	mov    %ecx,%edx
ffffffff802023c2:	89 cf                	mov    %ecx,%edi
ffffffff802023c4:	49 0f af d5          	imul   %r13,%rdx
ffffffff802023c8:	48 c1 ea 23          	shr    $0x23,%rdx
ffffffff802023cc:	44 8d 04 92          	lea    (%rdx,%rdx,4),%r8d
ffffffff802023d0:	45 01 c0             	add    %r8d,%r8d
ffffffff802023d3:	44 29 c7             	sub    %r8d,%edi
ffffffff802023d6:	49 89 f0             	mov    %rsi,%r8
ffffffff802023d9:	83 c7 30             	add    $0x30,%edi
ffffffff802023dc:	40 88 3c 33          	mov    %dil,(%rbx,%rsi,1)
ffffffff802023e0:	89 cf                	mov    %ecx,%edi
ffffffff802023e2:	48 83 c6 01          	add    $0x1,%rsi
ffffffff802023e6:	89 d1                	mov    %edx,%ecx
ffffffff802023e8:	83 ff 09             	cmp    $0x9,%edi
ffffffff802023eb:	77 d3                	ja     ffffffff802023c0 <fat16_dir+0x180>
ffffffff802023ed:	49 63 c8             	movslq %r8d,%rcx
ffffffff802023f0:	48 01 cb             	add    %rcx,%rbx
ffffffff802023f3:	4c 8d 74 0c 10       	lea    0x10(%rsp,%rcx,1),%r14
ffffffff802023f8:	41 8d 48 ff          	lea    -0x1(%r8),%ecx
ffffffff802023fc:	48 29 cb             	sub    %rcx,%rbx
ffffffff802023ff:	90                   	nop
ffffffff80202400:	41 0f be 7e ff       	movsbl -0x1(%r14),%edi
ffffffff80202405:	49 83 ee 01          	sub    $0x1,%r14
ffffffff80202409:	e8 d2 e3 ff ff       	call   ffffffff802007e0 <vga_putchar>
ffffffff8020240e:	49 39 de             	cmp    %rbx,%r14
ffffffff80202411:	75 ed                	jne    ffffffff80202400 <fat16_dir+0x1c0>
ffffffff80202413:	e9 50 ff ff ff       	jmp    ffffffff80202368 <fat16_dir+0x128>
ffffffff80202418:	48 c7 c7 90 4e 20 80 	mov    $0xffffffff80204e90,%rdi
ffffffff8020241f:	e8 fc e5 ff ff       	call   ffffffff80200a20 <vga_print>
ffffffff80202424:	e9 ff fe ff ff       	jmp    ffffffff80202328 <fat16_dir+0xe8>
ffffffff80202429:	0f 1f 80 00 00 00 00 	nopl   0x0(%rax)

ffffffff80202430 <fat16_read_file>:
ffffffff80202430:	41 57                	push   %r15
ffffffff80202432:	41 56                	push   %r14
ffffffff80202434:	45 31 f6             	xor    %r14d,%r14d
ffffffff80202437:	41 55                	push   %r13
ffffffff80202439:	41 54                	push   %r12
ffffffff8020243b:	55                   	push   %rbp
ffffffff8020243c:	48 89 f5             	mov    %rsi,%rbp
ffffffff8020243f:	53                   	push   %rbx
ffffffff80202440:	48 81 ec 28 04 00 00 	sub    $0x428,%rsp
ffffffff80202447:	4c 8d 6c 24 15       	lea    0x15(%rsp),%r13
ffffffff8020244c:	4c 8d 64 24 20       	lea    0x20(%rsp),%r12
ffffffff80202451:	4c 89 ee             	mov    %r13,%rsi
ffffffff80202454:	48 8d 9c 24 20 02 00 	lea    0x220(%rsp),%rbx
ffffffff8020245b:	00 
ffffffff8020245c:	e8 df fb ff ff       	call   ffffffff80202040 <format_fat_name>
ffffffff80202461:	8b 05 fd 61 00 00    	mov    0x61fd(%rip),%eax        # ffffffff80208664 <root_dir_size>
ffffffff80202467:	85 c0                	test   %eax,%eax
ffffffff80202469:	74 7f                	je     ffffffff802024ea <fat16_read_file+0xba>
ffffffff8020246b:	8b 3d f7 61 00 00    	mov    0x61f7(%rip),%edi        # ffffffff80208668 <root_dir_sector>
ffffffff80202471:	4c 89 e6             	mov    %r12,%rsi
ffffffff80202474:	44 01 f7             	add    %r14d,%edi
ffffffff80202477:	e8 64 fa ff ff       	call   ffffffff80201ee0 <ata_read_sector>
ffffffff8020247c:	4c 89 e1             	mov    %r12,%rcx
ffffffff8020247f:	90                   	nop
ffffffff80202480:	0f b6 01             	movzbl (%rcx),%eax
ffffffff80202483:	84 c0                	test   %al,%al
ffffffff80202485:	74 63                	je     ffffffff802024ea <fat16_read_file+0xba>
ffffffff80202487:	3c e5                	cmp    $0xe5,%al
ffffffff80202489:	74 49                	je     ffffffff802024d4 <fat16_read_file+0xa4>
ffffffff8020248b:	31 c0                	xor    %eax,%eax
ffffffff8020248d:	ba 01 00 00 00       	mov    $0x1,%edx
ffffffff80202492:	66 66 2e 0f 1f 84 00 	data16 cs nopw 0x0(%rax,%rax,1)
ffffffff80202499:	00 00 00 00 
ffffffff8020249d:	0f 1f 00             	nopl   (%rax)
ffffffff802024a0:	31 f6                	xor    %esi,%esi
ffffffff802024a2:	0f b6 3c 01          	movzbl (%rcx,%rax,1),%edi
ffffffff802024a6:	41 38 7c 05 00       	cmp    %dil,0x0(%r13,%rax,1)
ffffffff802024ab:	40 0f 94 c6          	sete   %sil
ffffffff802024af:	21 f2                	and    %esi,%edx
ffffffff802024b1:	48 83 f8 07          	cmp    $0x7,%rax
ffffffff802024b5:	77 09                	ja     ffffffff802024c0 <fat16_read_file+0x90>
ffffffff802024b7:	48 83 c0 01          	add    $0x1,%rax
ffffffff802024bb:	eb e3                	jmp    ffffffff802024a0 <fat16_read_file+0x70>
ffffffff802024bd:	0f 1f 00             	nopl   (%rax)
ffffffff802024c0:	48 83 c0 01          	add    $0x1,%rax
ffffffff802024c4:	48 83 f8 0b          	cmp    $0xb,%rax
ffffffff802024c8:	75 d6                	jne    ffffffff802024a0 <fat16_read_file+0x70>
ffffffff802024ca:	85 d2                	test   %edx,%edx
ffffffff802024cc:	74 06                	je     ffffffff802024d4 <fat16_read_file+0xa4>
ffffffff802024ce:	f6 41 0b 10          	testb  $0x10,0xb(%rcx)
ffffffff802024d2:	74 2a                	je     ffffffff802024fe <fat16_read_file+0xce>
ffffffff802024d4:	48 83 c1 20          	add    $0x20,%rcx
ffffffff802024d8:	48 39 cb             	cmp    %rcx,%rbx
ffffffff802024db:	75 a3                	jne    ffffffff80202480 <fat16_read_file+0x50>
ffffffff802024dd:	41 83 c6 01          	add    $0x1,%r14d
ffffffff802024e1:	44 3b 35 7c 61 00 00 	cmp    0x617c(%rip),%r14d        # ffffffff80208664 <root_dir_size>
ffffffff802024e8:	72 81                	jb     ffffffff8020246b <fat16_read_file+0x3b>
ffffffff802024ea:	31 c0                	xor    %eax,%eax
ffffffff802024ec:	48 81 c4 28 04 00 00 	add    $0x428,%rsp
ffffffff802024f3:	5b                   	pop    %rbx
ffffffff802024f4:	5d                   	pop    %rbp
ffffffff802024f5:	41 5c                	pop    %r12
ffffffff802024f7:	41 5d                	pop    %r13
ffffffff802024f9:	41 5e                	pop    %r14
ffffffff802024fb:	41 5f                	pop    %r15
ffffffff802024fd:	c3                   	ret
ffffffff802024fe:	44 0f b7 79 1a       	movzwl 0x1a(%rcx),%r15d
ffffffff80202503:	44 8b 71 1c          	mov    0x1c(%rcx),%r14d
ffffffff80202507:	41 8d 47 fe          	lea    -0x2(%r15),%eax
ffffffff8020250b:	66 83 f8 ed          	cmp    $0xffed,%ax
ffffffff8020250f:	0f 87 a0 00 00 00    	ja     ffffffff802025b5 <fat16_read_file+0x185>
ffffffff80202515:	45 31 e4             	xor    %r12d,%r12d
ffffffff80202518:	0f 1f 84 00 00 00 00 	nopl   0x0(%rax,%rax,1)
ffffffff8020251f:	00 
ffffffff80202520:	41 0f b7 c7          	movzwl %r15w,%eax
ffffffff80202524:	89 c2                	mov    %eax,%edx
ffffffff80202526:	89 44 24 0c          	mov    %eax,0xc(%rsp)
ffffffff8020252a:	0f b6 05 5c 61 00 00 	movzbl 0x615c(%rip),%eax        # ffffffff8020868d <bpb+0xd>
ffffffff80202531:	44 8d 6a fe          	lea    -0x2(%rdx),%r13d
ffffffff80202535:	0f b6 d0             	movzbl %al,%edx
ffffffff80202538:	44 0f af ea          	imul   %edx,%r13d
ffffffff8020253c:	44 03 2d 1d 61 00 00 	add    0x611d(%rip),%r13d        # ffffffff80208660 <data_sector>
ffffffff80202543:	84 c0                	test   %al,%al
ffffffff80202545:	74 34                	je     ffffffff8020257b <fat16_read_file+0x14b>
ffffffff80202547:	45 31 ff             	xor    %r15d,%r15d
ffffffff8020254a:	eb 14                	jmp    ffffffff80202560 <fat16_read_file+0x130>
ffffffff8020254c:	0f 1f 40 00          	nopl   0x0(%rax)
ffffffff80202550:	0f b6 15 36 61 00 00 	movzbl 0x6136(%rip),%edx        # ffffffff8020868d <bpb+0xd>
ffffffff80202557:	41 83 c7 01          	add    $0x1,%r15d
ffffffff8020255b:	44 39 fa             	cmp    %r15d,%edx
ffffffff8020255e:	7e 1b                	jle    ffffffff8020257b <fat16_read_file+0x14b>
ffffffff80202560:	44 89 e6             	mov    %r12d,%esi
ffffffff80202563:	43 8d 3c 2f          	lea    (%r15,%r13,1),%edi
ffffffff80202567:	41 81 c4 00 02 00 00 	add    $0x200,%r12d
ffffffff8020256e:	48 01 ee             	add    %rbp,%rsi
ffffffff80202571:	e8 6a f9 ff ff       	call   ffffffff80201ee0 <ata_read_sector>
ffffffff80202576:	45 39 f4             	cmp    %r14d,%r12d
ffffffff80202579:	72 d5                	jb     ffffffff80202550 <fat16_read_file+0x120>
ffffffff8020257b:	8b 44 24 0c          	mov    0xc(%rsp),%eax
ffffffff8020257f:	0f b7 3d 08 61 00 00 	movzwl 0x6108(%rip),%edi        # ffffffff8020868e <bpb+0xe>
ffffffff80202586:	48 89 de             	mov    %rbx,%rsi
ffffffff80202589:	44 8d 2c 00          	lea    (%rax,%rax,1),%r13d
ffffffff8020258d:	c1 e8 08             	shr    $0x8,%eax
ffffffff80202590:	01 c7                	add    %eax,%edi
ffffffff80202592:	41 81 e5 fe 01 00 00 	and    $0x1fe,%r13d
ffffffff80202599:	e8 42 f9 ff ff       	call   ffffffff80201ee0 <ata_read_sector>
ffffffff8020259e:	46 0f b7 bc 2c 20 02 	movzwl 0x220(%rsp,%r13,1),%r15d
ffffffff802025a5:	00 00 
ffffffff802025a7:	41 8d 47 fe          	lea    -0x2(%r15),%eax
ffffffff802025ab:	66 83 f8 ed          	cmp    $0xffed,%ax
ffffffff802025af:	0f 86 6b ff ff ff    	jbe    ffffffff80202520 <fat16_read_file+0xf0>
ffffffff802025b5:	44 89 f0             	mov    %r14d,%eax
ffffffff802025b8:	e9 2f ff ff ff       	jmp    ffffffff802024ec <fat16_read_file+0xbc>
ffffffff802025bd:	0f 1f 00             	nopl   (%rax)

ffffffff802025c0 <fat16_get_file_size>:
ffffffff802025c0:	41 54                	push   %r12
ffffffff802025c2:	45 31 e4             	xor    %r12d,%r12d
ffffffff802025c5:	55                   	push   %rbp
ffffffff802025c6:	53                   	push   %rbx
ffffffff802025c7:	48 81 ec 10 02 00 00 	sub    $0x210,%rsp
ffffffff802025ce:	48 8d 5c 24 05       	lea    0x5(%rsp),%rbx
ffffffff802025d3:	48 8d 6c 24 10       	lea    0x10(%rsp),%rbp
ffffffff802025d8:	48 89 de             	mov    %rbx,%rsi
ffffffff802025db:	e8 60 fa ff ff       	call   ffffffff80202040 <format_fat_name>
ffffffff802025e0:	8b 05 7e 60 00 00    	mov    0x607e(%rip),%eax        # ffffffff80208664 <root_dir_size>
ffffffff802025e6:	85 c0                	test   %eax,%eax
ffffffff802025e8:	0f 84 9a 00 00 00    	je     ffffffff80202688 <fat16_get_file_size+0xc8>
ffffffff802025ee:	8b 3d 74 60 00 00    	mov    0x6074(%rip),%edi        # ffffffff80208668 <root_dir_sector>
ffffffff802025f4:	48 89 ee             	mov    %rbp,%rsi
ffffffff802025f7:	44 01 e7             	add    %r12d,%edi
ffffffff802025fa:	e8 e1 f8 ff ff       	call   ffffffff80201ee0 <ata_read_sector>
ffffffff802025ff:	48 89 e9             	mov    %rbp,%rcx
ffffffff80202602:	66 66 2e 0f 1f 84 00 	data16 cs nopw 0x0(%rax,%rax,1)
ffffffff80202609:	00 00 00 00 
ffffffff8020260d:	0f 1f 00             	nopl   (%rax)
ffffffff80202610:	0f b6 01             	movzbl (%rcx),%eax
ffffffff80202613:	84 c0                	test   %al,%al
ffffffff80202615:	74 71                	je     ffffffff80202688 <fat16_get_file_size+0xc8>
ffffffff80202617:	3c e5                	cmp    $0xe5,%al
ffffffff80202619:	74 4b                	je     ffffffff80202666 <fat16_get_file_size+0xa6>
ffffffff8020261b:	31 c0                	xor    %eax,%eax
ffffffff8020261d:	ba 01 00 00 00       	mov    $0x1,%edx
ffffffff80202622:	48 83 f8 07          	cmp    $0x7,%rax
ffffffff80202626:	77 1a                	ja     ffffffff80202642 <fat16_get_file_size+0x82>
ffffffff80202628:	0f b6 3c 03          	movzbl (%rbx,%rax,1),%edi
ffffffff8020262c:	31 f6                	xor    %esi,%esi
ffffffff8020262e:	40 38 3c 01          	cmp    %dil,(%rcx,%rax,1)
ffffffff80202632:	40 0f 94 c6          	sete   %sil
ffffffff80202636:	48 83 c0 01          	add    $0x1,%rax
ffffffff8020263a:	21 f2                	and    %esi,%edx
ffffffff8020263c:	48 83 f8 07          	cmp    $0x7,%rax
ffffffff80202640:	76 e6                	jbe    ffffffff80202628 <fat16_get_file_size+0x68>
ffffffff80202642:	0f b6 3c 01          	movzbl (%rcx,%rax,1),%edi
ffffffff80202646:	31 f6                	xor    %esi,%esi
ffffffff80202648:	40 38 3c 03          	cmp    %dil,(%rbx,%rax,1)
ffffffff8020264c:	40 0f 94 c6          	sete   %sil
ffffffff80202650:	48 83 c0 01          	add    $0x1,%rax
ffffffff80202654:	21 f2                	and    %esi,%edx
ffffffff80202656:	48 83 f8 0b          	cmp    $0xb,%rax
ffffffff8020265a:	75 c6                	jne    ffffffff80202622 <fat16_get_file_size+0x62>
ffffffff8020265c:	85 d2                	test   %edx,%edx
ffffffff8020265e:	74 06                	je     ffffffff80202666 <fat16_get_file_size+0xa6>
ffffffff80202660:	f6 41 0b 10          	testb  $0x10,0xb(%rcx)
ffffffff80202664:	74 30                	je     ffffffff80202696 <fat16_get_file_size+0xd6>
ffffffff80202666:	48 83 c1 20          	add    $0x20,%rcx
ffffffff8020266a:	48 8d 84 24 10 02 00 	lea    0x210(%rsp),%rax
ffffffff80202671:	00 
ffffffff80202672:	48 39 c1             	cmp    %rax,%rcx
ffffffff80202675:	75 99                	jne    ffffffff80202610 <fat16_get_file_size+0x50>
ffffffff80202677:	41 83 c4 01          	add    $0x1,%r12d
ffffffff8020267b:	44 3b 25 e2 5f 00 00 	cmp    0x5fe2(%rip),%r12d        # ffffffff80208664 <root_dir_size>
ffffffff80202682:	0f 82 66 ff ff ff    	jb     ffffffff802025ee <fat16_get_file_size+0x2e>
ffffffff80202688:	48 81 c4 10 02 00 00 	add    $0x210,%rsp
ffffffff8020268f:	31 c0                	xor    %eax,%eax
ffffffff80202691:	5b                   	pop    %rbx
ffffffff80202692:	5d                   	pop    %rbp
ffffffff80202693:	41 5c                	pop    %r12
ffffffff80202695:	c3                   	ret
ffffffff80202696:	8b 41 1c             	mov    0x1c(%rcx),%eax
ffffffff80202699:	48 81 c4 10 02 00 00 	add    $0x210,%rsp
ffffffff802026a0:	5b                   	pop    %rbx
ffffffff802026a1:	5d                   	pop    %rbp
ffffffff802026a2:	41 5c                	pop    %r12
ffffffff802026a4:	c3                   	ret
ffffffff802026a5:	66 66 2e 0f 1f 84 00 	data16 cs nopw 0x0(%rax,%rax,1)
ffffffff802026ac:	00 00 00 00 

ffffffff802026b0 <fat16_write_file>:
ffffffff802026b0:	41 57                	push   %r15
ffffffff802026b2:	41 56                	push   %r14
ffffffff802026b4:	41 55                	push   %r13
ffffffff802026b6:	41 54                	push   %r12
ffffffff802026b8:	55                   	push   %rbp
ffffffff802026b9:	53                   	push   %rbx
ffffffff802026ba:	48 81 ec 38 04 00 00 	sub    $0x438,%rsp
ffffffff802026c1:	48 8d 6c 24 20       	lea    0x20(%rsp),%rbp
ffffffff802026c6:	48 89 34 24          	mov    %rsi,(%rsp)
ffffffff802026ca:	48 89 ee             	mov    %rbp,%rsi
ffffffff802026cd:	89 54 24 0c          	mov    %edx,0xc(%rsp)
ffffffff802026d1:	e8 6a f9 ff ff       	call   ffffffff80202040 <format_fat_name>
ffffffff802026d6:	8b 0d 88 5f 00 00    	mov    0x5f88(%rip),%ecx        # ffffffff80208664 <root_dir_size>
ffffffff802026dc:	85 c9                	test   %ecx,%ecx
ffffffff802026de:	0f 84 3c 03 00 00    	je     ffffffff80202a20 <fat16_write_file+0x370>
ffffffff802026e4:	44 8b 6c 24 0c       	mov    0xc(%rsp),%r13d
ffffffff802026e9:	31 db                	xor    %ebx,%ebx
ffffffff802026eb:	41 bc ff ff ff ff    	mov    $0xffffffff,%r12d
ffffffff802026f1:	45 31 f6             	xor    %r14d,%r14d
ffffffff802026f4:	8b 3d 6e 5f 00 00    	mov    0x5f6e(%rip),%edi        # ffffffff80208668 <root_dir_sector>
ffffffff802026fa:	48 8d 74 24 30       	lea    0x30(%rsp),%rsi
ffffffff802026ff:	45 31 ff             	xor    %r15d,%r15d
ffffffff80202702:	01 df                	add    %ebx,%edi
ffffffff80202704:	e8 d7 f7 ff ff       	call   ffffffff80201ee0 <ata_read_sector>
ffffffff80202709:	48 8d 4c 24 30       	lea    0x30(%rsp),%rcx
ffffffff8020270e:	66 90                	xchg   %ax,%ax
ffffffff80202710:	0f b6 01             	movzbl (%rcx),%eax
ffffffff80202713:	84 c0                	test   %al,%al
ffffffff80202715:	0f 84 d5 02 00 00    	je     ffffffff802029f0 <fat16_write_file+0x340>
ffffffff8020271b:	3c e5                	cmp    $0xe5,%al
ffffffff8020271d:	0f 84 cd 02 00 00    	je     ffffffff802029f0 <fat16_write_file+0x340>
ffffffff80202723:	31 c0                	xor    %eax,%eax
ffffffff80202725:	ba 01 00 00 00       	mov    $0x1,%edx
ffffffff8020272a:	48 83 f8 07          	cmp    $0x7,%rax
ffffffff8020272e:	77 1b                	ja     ffffffff8020274b <fat16_write_file+0x9b>
ffffffff80202730:	0f b6 7c 05 00       	movzbl 0x0(%rbp,%rax,1),%edi
ffffffff80202735:	31 f6                	xor    %esi,%esi
ffffffff80202737:	40 38 3c 01          	cmp    %dil,(%rcx,%rax,1)
ffffffff8020273b:	40 0f 94 c6          	sete   %sil
ffffffff8020273f:	48 83 c0 01          	add    $0x1,%rax
ffffffff80202743:	21 f2                	and    %esi,%edx
ffffffff80202745:	48 83 f8 07          	cmp    $0x7,%rax
ffffffff80202749:	76 e5                	jbe    ffffffff80202730 <fat16_write_file+0x80>
ffffffff8020274b:	0f b6 34 01          	movzbl (%rcx,%rax,1),%esi
ffffffff8020274f:	40 38 74 05 00       	cmp    %sil,0x0(%rbp,%rax,1)
ffffffff80202754:	40 0f 94 c6          	sete   %sil
ffffffff80202758:	48 83 c0 01          	add    $0x1,%rax
ffffffff8020275c:	40 0f b6 f6          	movzbl %sil,%esi
ffffffff80202760:	21 f2                	and    %esi,%edx
ffffffff80202762:	48 83 f8 0b          	cmp    $0xb,%rax
ffffffff80202766:	75 c2                	jne    ffffffff8020272a <fat16_write_file+0x7a>
ffffffff80202768:	85 d2                	test   %edx,%edx
ffffffff8020276a:	0f 85 c4 02 00 00    	jne    ffffffff80202a34 <fat16_write_file+0x384>
ffffffff80202770:	41 83 c7 01          	add    $0x1,%r15d
ffffffff80202774:	48 83 c1 20          	add    $0x20,%rcx
ffffffff80202778:	41 83 ff 10          	cmp    $0x10,%r15d
ffffffff8020277c:	75 92                	jne    ffffffff80202710 <fat16_write_file+0x60>
ffffffff8020277e:	83 c3 01             	add    $0x1,%ebx
ffffffff80202781:	3b 1d dd 5e 00 00    	cmp    0x5edd(%rip),%ebx        # ffffffff80208664 <root_dir_size>
ffffffff80202787:	0f 82 67 ff ff ff    	jb     ffffffff802026f4 <fat16_write_file+0x44>
ffffffff8020278d:	45 89 e8             	mov    %r13d,%r8d
ffffffff80202790:	41 83 fc ff          	cmp    $0xffffffff,%r12d
ffffffff80202794:	0f 84 86 02 00 00    	je     ffffffff80202a20 <fat16_write_file+0x370>
ffffffff8020279a:	31 c0                	xor    %eax,%eax
ffffffff8020279c:	31 d2                	xor    %edx,%edx
ffffffff8020279e:	44 89 64 24 1c       	mov    %r12d,0x1c(%rsp)
ffffffff802027a3:	45 31 ff             	xor    %r15d,%r15d
ffffffff802027a6:	66 89 44 24 16       	mov    %ax,0x16(%rsp)
ffffffff802027ab:	48 8d 9c 24 30 02 00 	lea    0x230(%rsp),%rbx
ffffffff802027b2:	00 
ffffffff802027b3:	66 89 54 24 14       	mov    %dx,0x14(%rsp)
ffffffff802027b8:	44 89 44 24 0c       	mov    %r8d,0xc(%rsp)
ffffffff802027bd:	44 89 74 24 18       	mov    %r14d,0x18(%rsp)
ffffffff802027c2:	45 89 fe             	mov    %r15d,%r14d
ffffffff802027c5:	0f b7 05 c7 5e 00 00 	movzwl 0x5ec7(%rip),%eax        # ffffffff80208693 <bpb+0x13>
ffffffff802027cc:	0f b6 0d ba 5e 00 00 	movzbl 0x5eba(%rip),%ecx        # ffffffff8020868d <bpb+0xd>
ffffffff802027d3:	99                   	cltd
ffffffff802027d4:	f7 f9                	idiv   %ecx
ffffffff802027d6:	85 c0                	test   %eax,%eax
ffffffff802027d8:	75 0a                	jne    ffffffff802027e4 <fat16_write_file+0x134>
ffffffff802027da:	8b 05 c0 5e 00 00    	mov    0x5ec0(%rip),%eax        # ffffffff802086a0 <bpb+0x20>
ffffffff802027e0:	31 d2                	xor    %edx,%edx
ffffffff802027e2:	f7 f1                	div    %ecx
ffffffff802027e4:	83 f8 02             	cmp    $0x2,%eax
ffffffff802027e7:	0f 86 33 02 00 00    	jbe    ffffffff80202a20 <fat16_write_file+0x370>
ffffffff802027ed:	41 bf 02 00 00 00    	mov    $0x2,%r15d
ffffffff802027f3:	44 89 74 24 10       	mov    %r14d,0x10(%rsp)
ffffffff802027f8:	41 89 c4             	mov    %eax,%r12d
ffffffff802027fb:	45 89 fe             	mov    %r15d,%r14d
ffffffff802027fe:	eb 18                	jmp    ffffffff80202818 <fat16_write_file+0x168>
ffffffff80202800:	41 83 c6 01          	add    $0x1,%r14d
ffffffff80202804:	45 39 e6             	cmp    %r12d,%r14d
ffffffff80202807:	0f 83 13 02 00 00    	jae    ffffffff80202a20 <fat16_write_file+0x370>
ffffffff8020280d:	66 41 83 fd ef       	cmp    $0xffef,%r13w
ffffffff80202812:	0f 84 08 02 00 00    	je     ffffffff80202a20 <fat16_write_file+0x370>
ffffffff80202818:	47 8d 3c 36          	lea    (%r14,%r14,1),%r15d
ffffffff8020281c:	0f b7 3d 6b 5e 00 00 	movzwl 0x5e6b(%rip),%edi        # ffffffff8020868e <bpb+0xe>
ffffffff80202823:	48 89 de             	mov    %rbx,%rsi
ffffffff80202826:	45 89 f5             	mov    %r14d,%r13d
ffffffff80202829:	44 89 f9             	mov    %r15d,%ecx
ffffffff8020282c:	c1 e9 09             	shr    $0x9,%ecx
ffffffff8020282f:	01 cf                	add    %ecx,%edi
ffffffff80202831:	e8 aa f6 ff ff       	call   ffffffff80201ee0 <ata_read_sector>
ffffffff80202836:	44 89 f8             	mov    %r15d,%eax
ffffffff80202839:	25 fe 01 00 00       	and    $0x1fe,%eax
ffffffff8020283e:	66 83 bc 04 30 02 00 	cmpw   $0x0,0x230(%rsp,%rax,1)
ffffffff80202845:	00 00 
ffffffff80202847:	75 b7                	jne    ffffffff80202800 <fat16_write_file+0x150>
ffffffff80202849:	45 89 f7             	mov    %r14d,%r15d
ffffffff8020284c:	be ff ff 00 00       	mov    $0xffff,%esi
ffffffff80202851:	44 8b 74 24 10       	mov    0x10(%rsp),%r14d
ffffffff80202856:	44 89 ff             	mov    %r15d,%edi
ffffffff80202859:	e8 e2 f8 ff ff       	call   ffffffff80202140 <fat16_set_fat_entry>
ffffffff8020285e:	66 83 7c 24 14 00    	cmpw   $0x0,0x14(%rsp)
ffffffff80202864:	0f 85 46 02 00 00    	jne    ffffffff80202ab0 <fat16_write_file+0x400>
ffffffff8020286a:	66 44 89 6c 24 14    	mov    %r13w,0x14(%rsp)
ffffffff80202870:	0f b6 15 16 5e 00 00 	movzbl 0x5e16(%rip),%edx        # ffffffff8020868d <bpb+0xd>
ffffffff80202877:	41 8d 77 fe          	lea    -0x2(%r15),%esi
ffffffff8020287b:	0f af f2             	imul   %edx,%esi
ffffffff8020287e:	03 35 dc 5d 00 00    	add    0x5ddc(%rip),%esi        # ffffffff80208660 <data_sector>
ffffffff80202884:	84 d2                	test   %dl,%dl
ffffffff80202886:	0f 84 c3 00 00 00    	je     ffffffff8020294f <fat16_write_file+0x29f>
ffffffff8020288c:	45 31 ff             	xor    %r15d,%r15d
ffffffff8020288f:	44 8b 64 24 0c       	mov    0xc(%rsp),%r12d
ffffffff80202894:	66 44 89 6c 24 10    	mov    %r13w,0x10(%rsp)
ffffffff8020289a:	45 89 fd             	mov    %r15d,%r13d
ffffffff8020289d:	41 89 f7             	mov    %esi,%r15d
ffffffff802028a0:	b9 40 00 00 00       	mov    $0x40,%ecx
ffffffff802028a5:	48 89 df             	mov    %rbx,%rdi
ffffffff802028a8:	31 c0                	xor    %eax,%eax
ffffffff802028aa:	f3 48 ab             	rep stos %rax,%es:(%rdi)
ffffffff802028ad:	45 39 e6             	cmp    %r12d,%r14d
ffffffff802028b0:	73 76                	jae    ffffffff80202928 <fat16_write_file+0x278>
ffffffff802028b2:	48 8b 34 24          	mov    (%rsp),%rsi
ffffffff802028b6:	44 89 f7             	mov    %r14d,%edi
ffffffff802028b9:	b8 01 00 00 00       	mov    $0x1,%eax
ffffffff802028be:	4c 8d 94 24 2f 02 00 	lea    0x22f(%rsp),%r10
ffffffff802028c5:	00 
ffffffff802028c6:	48 89 fa             	mov    %rdi,%rdx
ffffffff802028c9:	48 01 f7             	add    %rsi,%rdi
ffffffff802028cc:	66 66 2e 0f 1f 84 00 	data16 cs nopw 0x0(%rax,%rax,1)
ffffffff802028d3:	00 00 00 00 
ffffffff802028d7:	66 66 2e 0f 1f 84 00 	data16 cs nopw 0x0(%rax,%rax,1)
ffffffff802028de:	00 00 00 00 
ffffffff802028e2:	66 66 2e 0f 1f 84 00 	data16 cs nopw 0x0(%rax,%rax,1)
ffffffff802028e9:	00 00 00 00 
ffffffff802028ed:	66 66 2e 0f 1f 84 00 	data16 cs nopw 0x0(%rax,%rax,1)
ffffffff802028f4:	00 00 00 00 
ffffffff802028f8:	0f 1f 84 00 00 00 00 	nopl   0x0(%rax,%rax,1)
ffffffff802028ff:	00 
ffffffff80202900:	0f b6 4c 07 ff       	movzbl -0x1(%rdi,%rax,1),%ecx
ffffffff80202905:	83 c2 01             	add    $0x1,%edx
ffffffff80202908:	48 3d 00 02 00 00    	cmp    $0x200,%rax
ffffffff8020290e:	40 0f 95 c6          	setne  %sil
ffffffff80202912:	44 39 e2             	cmp    %r12d,%edx
ffffffff80202915:	41 88 0c 02          	mov    %cl,(%r10,%rax,1)
ffffffff80202919:	0f 92 c1             	setb   %cl
ffffffff8020291c:	48 83 c0 01          	add    $0x1,%rax
ffffffff80202920:	40 84 ce             	test   %cl,%sil
ffffffff80202923:	75 db                	jne    ffffffff80202900 <fat16_write_file+0x250>
ffffffff80202925:	41 89 d6             	mov    %edx,%r14d
ffffffff80202928:	43 8d 7c 3d 00       	lea    0x0(%r13,%r15,1),%edi
ffffffff8020292d:	48 89 de             	mov    %rbx,%rsi
ffffffff80202930:	41 83 c5 01          	add    $0x1,%r13d
ffffffff80202934:	e8 37 f6 ff ff       	call   ffffffff80201f70 <ata_write_sector>
ffffffff80202939:	0f b6 05 4d 5d 00 00 	movzbl 0x5d4d(%rip),%eax        # ffffffff8020868d <bpb+0xd>
ffffffff80202940:	44 39 e8             	cmp    %r13d,%eax
ffffffff80202943:	0f 8f 57 ff ff ff    	jg     ffffffff802028a0 <fat16_write_file+0x1f0>
ffffffff80202949:	44 0f b7 6c 24 10    	movzwl 0x10(%rsp),%r13d
ffffffff8020294f:	8b 44 24 0c          	mov    0xc(%rsp),%eax
ffffffff80202953:	85 c0                	test   %eax,%eax
ffffffff80202955:	74 09                	je     ffffffff80202960 <fat16_write_file+0x2b0>
ffffffff80202957:	41 39 c6             	cmp    %eax,%r14d
ffffffff8020295a:	0f 82 62 01 00 00    	jb     ffffffff80202ac2 <fat16_write_file+0x412>
ffffffff80202960:	44 8b 74 24 18       	mov    0x18(%rsp),%r14d
ffffffff80202965:	8b 3d fd 5c 00 00    	mov    0x5cfd(%rip),%edi        # ffffffff80208668 <root_dir_sector>
ffffffff8020296b:	48 8d 74 24 30       	lea    0x30(%rsp),%rsi
ffffffff80202970:	48 8d 5c 24 30       	lea    0x30(%rsp),%rbx
ffffffff80202975:	44 8b 44 24 0c       	mov    0xc(%rsp),%r8d
ffffffff8020297a:	44 8b 64 24 1c       	mov    0x1c(%rsp),%r12d
ffffffff8020297f:	44 01 f7             	add    %r14d,%edi
ffffffff80202982:	44 89 04 24          	mov    %r8d,(%rsp)
ffffffff80202986:	e8 55 f5 ff ff       	call   ffffffff80201ee0 <ata_read_sector>
ffffffff8020298b:	49 63 c4             	movslq %r12d,%rax
ffffffff8020298e:	44 8b 04 24          	mov    (%rsp),%r8d
ffffffff80202992:	31 d2                	xor    %edx,%edx
ffffffff80202994:	48 c1 e0 05          	shl    $0x5,%rax
ffffffff80202998:	48 01 d8             	add    %rbx,%rax
ffffffff8020299b:	0f b6 4c 15 00       	movzbl 0x0(%rbp,%rdx,1),%ecx
ffffffff802029a0:	88 0c 10             	mov    %cl,(%rax,%rdx,1)
ffffffff802029a3:	48 83 c2 01          	add    $0x1,%rdx
ffffffff802029a7:	48 83 fa 08          	cmp    $0x8,%rdx
ffffffff802029ab:	75 ee                	jne    ffffffff8020299b <fat16_write_file+0x2eb>
ffffffff802029ad:	0f b7 54 24 28       	movzwl 0x28(%rsp),%edx
ffffffff802029b2:	0f b7 5c 24 14       	movzwl 0x14(%rsp),%ebx
ffffffff802029b7:	c6 40 0b 20          	movb   $0x20,0xb(%rax)
ffffffff802029bb:	48 8d 74 24 30       	lea    0x30(%rsp),%rsi
ffffffff802029c0:	44 89 40 1c          	mov    %r8d,0x1c(%rax)
ffffffff802029c4:	8b 3d 9e 5c 00 00    	mov    0x5c9e(%rip),%edi        # ffffffff80208668 <root_dir_sector>
ffffffff802029ca:	66 89 50 08          	mov    %dx,0x8(%rax)
ffffffff802029ce:	0f b6 54 24 2a       	movzbl 0x2a(%rsp),%edx
ffffffff802029d3:	66 89 58 1a          	mov    %bx,0x1a(%rax)
ffffffff802029d7:	44 01 f7             	add    %r14d,%edi
ffffffff802029da:	88 50 0a             	mov    %dl,0xa(%rax)
ffffffff802029dd:	44 89 04 24          	mov    %r8d,(%rsp)
ffffffff802029e1:	e8 8a f5 ff ff       	call   ffffffff80201f70 <ata_write_sector>
ffffffff802029e6:	8b 04 24             	mov    (%rsp),%eax
ffffffff802029e9:	eb 37                	jmp    ffffffff80202a22 <fat16_write_file+0x372>
ffffffff802029eb:	0f 1f 44 00 00       	nopl   0x0(%rax,%rax,1)
ffffffff802029f0:	41 83 fc ff          	cmp    $0xffffffff,%r12d
ffffffff802029f4:	75 06                	jne    ffffffff802029fc <fat16_write_file+0x34c>
ffffffff802029f6:	45 89 fc             	mov    %r15d,%r12d
ffffffff802029f9:	41 89 de             	mov    %ebx,%r14d
ffffffff802029fc:	84 c0                	test   %al,%al
ffffffff802029fe:	0f 85 6c fd ff ff    	jne    ffffffff80202770 <fat16_write_file+0xc0>
ffffffff80202a04:	83 c3 01             	add    $0x1,%ebx
ffffffff80202a07:	3b 1d 57 5c 00 00    	cmp    0x5c57(%rip),%ebx        # ffffffff80208664 <root_dir_size>
ffffffff80202a0d:	0f 82 e1 fc ff ff    	jb     ffffffff802026f4 <fat16_write_file+0x44>
ffffffff80202a13:	e9 75 fd ff ff       	jmp    ffffffff8020278d <fat16_write_file+0xdd>
ffffffff80202a18:	0f 1f 84 00 00 00 00 	nopl   0x0(%rax,%rax,1)
ffffffff80202a1f:	00 
ffffffff80202a20:	31 c0                	xor    %eax,%eax
ffffffff80202a22:	48 81 c4 38 04 00 00 	add    $0x438,%rsp
ffffffff80202a29:	5b                   	pop    %rbx
ffffffff80202a2a:	5d                   	pop    %rbp
ffffffff80202a2b:	41 5c                	pop    %r12
ffffffff80202a2d:	41 5d                	pop    %r13
ffffffff80202a2f:	41 5e                	pop    %r14
ffffffff80202a31:	41 5f                	pop    %r15
ffffffff80202a33:	c3                   	ret
ffffffff80202a34:	44 0f b7 61 1a       	movzwl 0x1a(%rcx),%r12d
ffffffff80202a39:	45 89 e8             	mov    %r13d,%r8d
ffffffff80202a3c:	41 8d 54 24 fe       	lea    -0x2(%r12),%edx
ffffffff80202a41:	66 83 fa ed          	cmp    $0xffed,%dx
ffffffff80202a45:	77 5a                	ja     ffffffff80202aa1 <fat16_write_file+0x3f1>
ffffffff80202a47:	89 5c 24 0c          	mov    %ebx,0xc(%rsp)
ffffffff80202a4b:	4c 8d ac 24 30 02 00 	lea    0x230(%rsp),%r13
ffffffff80202a52:	00 
ffffffff80202a53:	44 89 e3             	mov    %r12d,%ebx
ffffffff80202a56:	45 89 c4             	mov    %r8d,%r12d
ffffffff80202a59:	44 0f b7 f3          	movzwl %bx,%r14d
ffffffff80202a5d:	0f b7 3d 2a 5c 00 00 	movzwl 0x5c2a(%rip),%edi        # ffffffff8020868e <bpb+0xe>
ffffffff80202a64:	4c 89 ee             	mov    %r13,%rsi
ffffffff80202a67:	44 89 f2             	mov    %r14d,%edx
ffffffff80202a6a:	43 8d 1c 36          	lea    (%r14,%r14,1),%ebx
ffffffff80202a6e:	c1 ea 08             	shr    $0x8,%edx
ffffffff80202a71:	01 d7                	add    %edx,%edi
ffffffff80202a73:	e8 68 f4 ff ff       	call   ffffffff80201ee0 <ata_read_sector>
ffffffff80202a78:	89 d8                	mov    %ebx,%eax
ffffffff80202a7a:	31 f6                	xor    %esi,%esi
ffffffff80202a7c:	44 89 f7             	mov    %r14d,%edi
ffffffff80202a7f:	25 fe 01 00 00       	and    $0x1fe,%eax
ffffffff80202a84:	0f b7 9c 04 30 02 00 	movzwl 0x230(%rsp,%rax,1),%ebx
ffffffff80202a8b:	00 
ffffffff80202a8c:	e8 af f6 ff ff       	call   ffffffff80202140 <fat16_set_fat_entry>
ffffffff80202a91:	8d 53 fe             	lea    -0x2(%rbx),%edx
ffffffff80202a94:	66 83 fa ed          	cmp    $0xffed,%dx
ffffffff80202a98:	76 bf                	jbe    ffffffff80202a59 <fat16_write_file+0x3a9>
ffffffff80202a9a:	8b 5c 24 0c          	mov    0xc(%rsp),%ebx
ffffffff80202a9e:	45 89 e0             	mov    %r12d,%r8d
ffffffff80202aa1:	45 89 fc             	mov    %r15d,%r12d
ffffffff80202aa4:	41 89 de             	mov    %ebx,%r14d
ffffffff80202aa7:	e9 ee fc ff ff       	jmp    ffffffff8020279a <fat16_write_file+0xea>
ffffffff80202aac:	0f 1f 40 00          	nopl   0x0(%rax)
ffffffff80202ab0:	0f b7 7c 24 16       	movzwl 0x16(%rsp),%edi
ffffffff80202ab5:	44 89 fe             	mov    %r15d,%esi
ffffffff80202ab8:	e8 83 f6 ff ff       	call   ffffffff80202140 <fat16_set_fat_entry>
ffffffff80202abd:	e9 ae fd ff ff       	jmp    ffffffff80202870 <fat16_write_file+0x1c0>
ffffffff80202ac2:	66 44 89 6c 24 16    	mov    %r13w,0x16(%rsp)
ffffffff80202ac8:	e9 f8 fc ff ff       	jmp    ffffffff802027c5 <fat16_write_file+0x115>
ffffffff80202acd:	66 2e 0f 1f 84 00 00 	cs nopw 0x0(%rax,%rax,1)
ffffffff80202ad4:	00 00 00 
ffffffff80202ad7:	66 0f 1f 84 00 00 00 	nopw   0x0(%rax,%rax,1)
ffffffff80202ade:	00 00 

ffffffff80202ae0 <acpi_init>:
ffffffff80202ae0:	48 8b 05 a1 44 00 00 	mov    0x44a1(%rip),%rax        # ffffffff80206f88 <rsdp_request+0x28>
ffffffff80202ae7:	48 85 c0             	test   %rax,%rax
ffffffff80202aea:	0f 84 79 01 00 00    	je     ffffffff80202c69 <acpi_init+0x189>
ffffffff80202af0:	48 8b 05 91 44 00 00 	mov    0x4491(%rip),%rax        # ffffffff80206f88 <rsdp_request+0x28>
ffffffff80202af7:	4c 8b 05 0a 5b 00 00 	mov    0x5b0a(%rip),%r8        # ffffffff80208608 <hhdm_offset>
ffffffff80202afe:	48 8b 40 08          	mov    0x8(%rax),%rax
ffffffff80202b02:	8b 50 10             	mov    0x10(%rax),%edx
ffffffff80202b05:	4c 01 c2             	add    %r8,%rdx
ffffffff80202b08:	8b 42 04             	mov    0x4(%rdx),%eax
ffffffff80202b0b:	48 8d 7a 24          	lea    0x24(%rdx),%rdi
ffffffff80202b0f:	48 83 e8 24          	sub    $0x24,%rax
ffffffff80202b13:	48 c1 e8 02          	shr    $0x2,%rax
ffffffff80202b17:	85 c0                	test   %eax,%eax
ffffffff80202b19:	0f 8e 3e 01 00 00    	jle    ffffffff80202c5d <acpi_init+0x17d>
ffffffff80202b1f:	83 e8 01             	sub    $0x1,%eax
ffffffff80202b22:	48 c7 c1 9f 4b 20 80 	mov    $0xffffffff80204b9f,%rcx
ffffffff80202b29:	4c 8d 4c 82 28       	lea    0x28(%rdx,%rax,4),%r9
ffffffff80202b2e:	66 90                	xchg   %ax,%ax
ffffffff80202b30:	8b 37                	mov    (%rdi),%esi
ffffffff80202b32:	48 c7 c0 9b 4b 20 80 	mov    $0xffffffff80204b9b,%rax
ffffffff80202b39:	4c 01 c6             	add    %r8,%rsi
ffffffff80202b3c:	48 89 f2             	mov    %rsi,%rdx
ffffffff80202b3f:	48 29 c2             	sub    %rax,%rdx
ffffffff80202b42:	66 66 2e 0f 1f 84 00 	data16 cs nopw 0x0(%rax,%rax,1)
ffffffff80202b49:	00 00 00 00 
ffffffff80202b4d:	66 66 2e 0f 1f 84 00 	data16 cs nopw 0x0(%rax,%rax,1)
ffffffff80202b54:	00 00 00 00 
ffffffff80202b58:	0f 1f 84 00 00 00 00 	nopl   0x0(%rax,%rax,1)
ffffffff80202b5f:	00 
ffffffff80202b60:	44 0f b6 10          	movzbl (%rax),%r10d
ffffffff80202b64:	44 38 14 02          	cmp    %r10b,(%rdx,%rax,1)
ffffffff80202b68:	0f 85 e2 00 00 00    	jne    ffffffff80202c50 <acpi_init+0x170>
ffffffff80202b6e:	48 83 c0 01          	add    $0x1,%rax
ffffffff80202b72:	48 39 c1             	cmp    %rax,%rcx
ffffffff80202b75:	75 e9                	jne    ffffffff80202b60 <acpi_init+0x80>
ffffffff80202b77:	48 85 f6             	test   %rsi,%rsi
ffffffff80202b7a:	0f 84 dd 00 00 00    	je     ffffffff80202c5d <acpi_init+0x17d>
ffffffff80202b80:	8b 56 30             	mov    0x30(%rsi),%edx
ffffffff80202b83:	85 d2                	test   %edx,%edx
ffffffff80202b85:	74 09                	je     ffffffff80202b90 <acpi_init+0xb0>
ffffffff80202b87:	0f b6 46 34          	movzbl 0x34(%rsi),%eax
ffffffff80202b8b:	84 c0                	test   %al,%al
ffffffff80202b8d:	74 01                	je     ffffffff80202b90 <acpi_init+0xb0>
ffffffff80202b8f:	ee                   	out    %al,(%dx)
ffffffff80202b90:	8b 46 40             	mov    0x40(%rsi),%eax
ffffffff80202b93:	89 05 eb 5c 00 00    	mov    %eax,0x5ceb(%rip)        # ffffffff80208884 <pm1a_cnt_blk>
ffffffff80202b99:	8b 46 28             	mov    0x28(%rsi),%eax
ffffffff80202b9c:	4c 01 c0             	add    %r8,%rax
ffffffff80202b9f:	48 89 c2             	mov    %rax,%rdx
ffffffff80202ba2:	0f 84 88 00 00 00    	je     ffffffff80202c30 <acpi_init+0x150>
ffffffff80202ba8:	8b 70 04             	mov    0x4(%rax),%esi
ffffffff80202bab:	31 c0                	xor    %eax,%eax
ffffffff80202bad:	8d 4e fc             	lea    -0x4(%rsi),%ecx
ffffffff80202bb0:	83 fe 04             	cmp    $0x4,%esi
ffffffff80202bb3:	7f 14                	jg     ffffffff80202bc9 <acpi_init+0xe9>
ffffffff80202bb5:	eb 79                	jmp    ffffffff80202c30 <acpi_init+0x150>
ffffffff80202bb7:	66 0f 1f 84 00 00 00 	nopw   0x0(%rax,%rax,1)
ffffffff80202bbe:	00 00 
ffffffff80202bc0:	48 83 c0 01          	add    $0x1,%rax
ffffffff80202bc4:	48 39 c1             	cmp    %rax,%rcx
ffffffff80202bc7:	74 67                	je     ffffffff80202c30 <acpi_init+0x150>
ffffffff80202bc9:	80 3c 02 5f          	cmpb   $0x5f,(%rdx,%rax,1)
ffffffff80202bcd:	75 f1                	jne    ffffffff80202bc0 <acpi_init+0xe0>
ffffffff80202bcf:	80 7c 02 01 53       	cmpb   $0x53,0x1(%rdx,%rax,1)
ffffffff80202bd4:	75 ea                	jne    ffffffff80202bc0 <acpi_init+0xe0>
ffffffff80202bd6:	80 7c 02 02 35       	cmpb   $0x35,0x2(%rdx,%rax,1)
ffffffff80202bdb:	75 e3                	jne    ffffffff80202bc0 <acpi_init+0xe0>
ffffffff80202bdd:	80 7c 02 03 5f       	cmpb   $0x5f,0x3(%rdx,%rax,1)
ffffffff80202be2:	75 dc                	jne    ffffffff80202bc0 <acpi_init+0xe0>
ffffffff80202be4:	48 85 c0             	test   %rax,%rax
ffffffff80202be7:	74 d7                	je     ffffffff80202bc0 <acpi_init+0xe0>
ffffffff80202be9:	0f b6 74 02 ff       	movzbl -0x1(%rdx,%rax,1),%esi
ffffffff80202bee:	40 80 fe 08          	cmp    $0x8,%sil
ffffffff80202bf2:	74 13                	je     ffffffff80202c07 <acpi_init+0x127>
ffffffff80202bf4:	48 83 f8 01          	cmp    $0x1,%rax
ffffffff80202bf8:	74 c6                	je     ffffffff80202bc0 <acpi_init+0xe0>
ffffffff80202bfa:	80 7c 02 fe 08       	cmpb   $0x8,-0x2(%rdx,%rax,1)
ffffffff80202bff:	75 bf                	jne    ffffffff80202bc0 <acpi_init+0xe0>
ffffffff80202c01:	40 80 fe 5c          	cmp    $0x5c,%sil
ffffffff80202c05:	75 b9                	jne    ffffffff80202bc0 <acpi_init+0xe0>
ffffffff80202c07:	48 8d 54 02 04       	lea    0x4(%rdx,%rax,1),%rdx
ffffffff80202c0c:	80 3a 12             	cmpb   $0x12,(%rdx)
ffffffff80202c0f:	75 af                	jne    ffffffff80202bc0 <acpi_init+0xe0>
ffffffff80202c11:	80 7a 03 0a          	cmpb   $0xa,0x3(%rdx)
ffffffff80202c15:	48 8d 42 04          	lea    0x4(%rdx),%rax
ffffffff80202c19:	74 04                	je     ffffffff80202c1f <acpi_init+0x13f>
ffffffff80202c1b:	48 8d 42 03          	lea    0x3(%rdx),%rax
ffffffff80202c1f:	0f b6 00             	movzbl (%rax),%eax
ffffffff80202c22:	c1 e0 0a             	shl    $0xa,%eax
ffffffff80202c25:	66 89 05 54 5c 00 00 	mov    %ax,0x5c54(%rip)        # ffffffff80208880 <slp_typa>
ffffffff80202c2c:	eb 09                	jmp    ffffffff80202c37 <acpi_init+0x157>
ffffffff80202c2e:	66 90                	xchg   %ax,%ax
ffffffff80202c30:	0f b7 05 49 5c 00 00 	movzwl 0x5c49(%rip),%eax        # ffffffff80208880 <slp_typa>
ffffffff80202c37:	66 85 c0             	test   %ax,%ax
ffffffff80202c3a:	75 0c                	jne    ffffffff80202c48 <acpi_init+0x168>
ffffffff80202c3c:	b8 00 14 00 00       	mov    $0x1400,%eax
ffffffff80202c41:	66 89 05 38 5c 00 00 	mov    %ax,0x5c38(%rip)        # ffffffff80208880 <slp_typa>
ffffffff80202c48:	c3                   	ret
ffffffff80202c49:	0f 1f 80 00 00 00 00 	nopl   0x0(%rax)
ffffffff80202c50:	48 83 c7 04          	add    $0x4,%rdi
ffffffff80202c54:	49 39 f9             	cmp    %rdi,%r9
ffffffff80202c57:	0f 85 d3 fe ff ff    	jne    ffffffff80202b30 <acpi_init+0x50>
ffffffff80202c5d:	48 c7 c7 a0 4b 20 80 	mov    $0xffffffff80204ba0,%rdi
ffffffff80202c64:	e9 b7 dd ff ff       	jmp    ffffffff80200a20 <vga_print>
ffffffff80202c69:	48 c7 c7 b8 4e 20 80 	mov    $0xffffffff80204eb8,%rdi
ffffffff80202c70:	e9 ab dd ff ff       	jmp    ffffffff80200a20 <vga_print>
ffffffff80202c75:	66 66 2e 0f 1f 84 00 	data16 cs nopw 0x0(%rax,%rax,1)
ffffffff80202c7c:	00 00 00 00 

ffffffff80202c80 <acpi_poweroff>:
ffffffff80202c80:	8b 15 fe 5b 00 00    	mov    0x5bfe(%rip),%edx        # ffffffff80208884 <pm1a_cnt_blk>
ffffffff80202c86:	85 d2                	test   %edx,%edx
ffffffff80202c88:	74 16                	je     ffffffff80202ca0 <acpi_poweroff+0x20>
ffffffff80202c8a:	0f b7 05 ef 5b 00 00 	movzwl 0x5bef(%rip),%eax        # ffffffff80208880 <slp_typa>
ffffffff80202c91:	80 cc 20             	or     $0x20,%ah
ffffffff80202c94:	66 ef                	out    %ax,(%dx)
ffffffff80202c96:	c3                   	ret
ffffffff80202c97:	66 0f 1f 84 00 00 00 	nopw   0x0(%rax,%rax,1)
ffffffff80202c9e:	00 00 
ffffffff80202ca0:	b8 00 20 00 00       	mov    $0x2000,%eax
ffffffff80202ca5:	ba 04 06 00 00       	mov    $0x604,%edx
ffffffff80202caa:	66 ef                	out    %ax,(%dx)
ffffffff80202cac:	ba 04 b0 ff ff       	mov    $0xffffb004,%edx
ffffffff80202cb1:	66 ef                	out    %ax,(%dx)
ffffffff80202cb3:	c3                   	ret
ffffffff80202cb4:	66 2e 0f 1f 84 00 00 	cs nopw 0x0(%rax,%rax,1)
ffffffff80202cbb:	00 00 00 
ffffffff80202cbe:	66 90                	xchg   %ax,%ax

ffffffff80202cc0 <pci_read_config>:
ffffffff80202cc0:	40 0f b6 ff          	movzbl %dil,%edi
ffffffff80202cc4:	81 e1 fc 00 00 00    	and    $0xfc,%ecx
ffffffff80202cca:	0f b6 d2             	movzbl %dl,%edx
ffffffff80202ccd:	40 0f b6 f6          	movzbl %sil,%esi
ffffffff80202cd1:	c1 e7 10             	shl    $0x10,%edi
ffffffff80202cd4:	c1 e2 08             	shl    $0x8,%edx
ffffffff80202cd7:	09 cf                	or     %ecx,%edi
ffffffff80202cd9:	c1 e6 0b             	shl    $0xb,%esi
ffffffff80202cdc:	09 d7                	or     %edx,%edi
ffffffff80202cde:	ba f8 0c 00 00       	mov    $0xcf8,%edx
ffffffff80202ce3:	09 f7                	or     %esi,%edi
ffffffff80202ce5:	89 f8                	mov    %edi,%eax
ffffffff80202ce7:	0d 00 00 00 80       	or     $0x80000000,%eax
ffffffff80202cec:	ef                   	out    %eax,(%dx)
ffffffff80202ced:	ba fc 0c 00 00       	mov    $0xcfc,%edx
ffffffff80202cf2:	ed                   	in     (%dx),%eax
ffffffff80202cf3:	c3                   	ret
ffffffff80202cf4:	66 66 2e 0f 1f 84 00 	data16 cs nopw 0x0(%rax,%rax,1)
ffffffff80202cfb:	00 00 00 00 
ffffffff80202cff:	90                   	nop

ffffffff80202d00 <pci_init>:
ffffffff80202d00:	41 57                	push   %r15
ffffffff80202d02:	31 c9                	xor    %ecx,%ecx
ffffffff80202d04:	41 56                	push   %r14
ffffffff80202d06:	41 55                	push   %r13
ffffffff80202d08:	45 31 ed             	xor    %r13d,%r13d
ffffffff80202d0b:	41 54                	push   %r12
ffffffff80202d0d:	55                   	push   %rbp
ffffffff80202d0e:	53                   	push   %rbx
ffffffff80202d0f:	bb f8 0c 00 00       	mov    $0xcf8,%ebx
ffffffff80202d14:	48 83 ec 08          	sub    $0x8,%rsp
ffffffff80202d18:	45 89 ec             	mov    %r13d,%r12d
ffffffff80202d1b:	31 ed                	xor    %ebp,%ebp
ffffffff80202d1d:	41 c1 e4 10          	shl    $0x10,%r12d
ffffffff80202d21:	66 66 2e 0f 1f 84 00 	data16 cs nopw 0x0(%rax,%rax,1)
ffffffff80202d28:	00 00 00 00 
ffffffff80202d2c:	0f 1f 40 00          	nopl   0x0(%rax)
ffffffff80202d30:	41 89 ef             	mov    %ebp,%r15d
ffffffff80202d33:	89 da                	mov    %ebx,%edx
ffffffff80202d35:	41 c1 e7 0b          	shl    $0xb,%r15d
ffffffff80202d39:	45 09 e7             	or     %r12d,%r15d
ffffffff80202d3c:	44 89 f8             	mov    %r15d,%eax
ffffffff80202d3f:	0d 00 00 00 80       	or     $0x80000000,%eax
ffffffff80202d44:	ef                   	out    %eax,(%dx)
ffffffff80202d45:	ba fc 0c 00 00       	mov    $0xcfc,%edx
ffffffff80202d4a:	ed                   	in     (%dx),%eax
ffffffff80202d4b:	0f b7 c0             	movzwl %ax,%eax
ffffffff80202d4e:	3d ff ff 00 00       	cmp    $0xffff,%eax
ffffffff80202d53:	0f 84 87 00 00 00    	je     ffffffff80202de0 <pci_init+0xe0>
ffffffff80202d59:	45 31 f6             	xor    %r14d,%r14d
ffffffff80202d5c:	eb 38                	jmp    ffffffff80202d96 <pci_init+0x96>
ffffffff80202d5e:	66 90                	xchg   %ax,%ax
ffffffff80202d60:	80 fa 10             	cmp    $0x10,%dl
ffffffff80202d63:	0f 84 c7 00 00 00    	je     ffffffff80202e30 <pci_init+0x130>
ffffffff80202d69:	80 fa 20             	cmp    $0x20,%dl
ffffffff80202d6c:	0f 84 d6 00 00 00    	je     ffffffff80202e48 <pci_init+0x148>
ffffffff80202d72:	80 fa 30             	cmp    $0x30,%dl
ffffffff80202d75:	0f 84 95 00 00 00    	je     ffffffff80202e10 <pci_init+0x110>
ffffffff80202d7b:	48 c7 c7 80 4f 20 80 	mov    $0xffffffff80204f80,%rdi
ffffffff80202d82:	e8 99 dc ff ff       	call   ffffffff80200a20 <vga_print>
ffffffff80202d87:	b9 01 00 00 00       	mov    $0x1,%ecx
ffffffff80202d8c:	41 83 c6 01          	add    $0x1,%r14d
ffffffff80202d90:	41 83 fe 08          	cmp    $0x8,%r14d
ffffffff80202d94:	74 4a                	je     ffffffff80202de0 <pci_init+0xe0>
ffffffff80202d96:	44 89 f0             	mov    %r14d,%eax
ffffffff80202d99:	89 da                	mov    %ebx,%edx
ffffffff80202d9b:	c1 e0 08             	shl    $0x8,%eax
ffffffff80202d9e:	44 09 f8             	or     %r15d,%eax
ffffffff80202da1:	0d 08 00 00 80       	or     $0x80000008,%eax
ffffffff80202da6:	ef                   	out    %eax,(%dx)
ffffffff80202da7:	ba fc 0c 00 00       	mov    $0xcfc,%edx
ffffffff80202dac:	ed                   	in     (%dx),%eax
ffffffff80202dad:	89 c2                	mov    %eax,%edx
ffffffff80202daf:	c1 ea 18             	shr    $0x18,%edx
ffffffff80202db2:	83 fa 0c             	cmp    $0xc,%edx
ffffffff80202db5:	75 d5                	jne    ffffffff80202d8c <pci_init+0x8c>
ffffffff80202db7:	89 c2                	mov    %eax,%edx
ffffffff80202db9:	c1 ea 10             	shr    $0x10,%edx
ffffffff80202dbc:	80 fa 03             	cmp    $0x3,%dl
ffffffff80202dbf:	75 cb                	jne    ffffffff80202d8c <pci_init+0x8c>
ffffffff80202dc1:	89 c2                	mov    %eax,%edx
ffffffff80202dc3:	c1 ea 08             	shr    $0x8,%edx
ffffffff80202dc6:	f6 c4 ff             	test   $0xff,%ah
ffffffff80202dc9:	75 95                	jne    ffffffff80202d60 <pci_init+0x60>
ffffffff80202dcb:	48 c7 c7 e0 4e 20 80 	mov    $0xffffffff80204ee0,%rdi
ffffffff80202dd2:	e8 49 dc ff ff       	call   ffffffff80200a20 <vga_print>
ffffffff80202dd7:	eb ae                	jmp    ffffffff80202d87 <pci_init+0x87>
ffffffff80202dd9:	0f 1f 80 00 00 00 00 	nopl   0x0(%rax)
ffffffff80202de0:	83 c5 01             	add    $0x1,%ebp
ffffffff80202de3:	83 fd 20             	cmp    $0x20,%ebp
ffffffff80202de6:	0f 85 44 ff ff ff    	jne    ffffffff80202d30 <pci_init+0x30>
ffffffff80202dec:	41 83 c5 01          	add    $0x1,%r13d
ffffffff80202df0:	41 81 fd 00 01 00 00 	cmp    $0x100,%r13d
ffffffff80202df7:	0f 85 1b ff ff ff    	jne    ffffffff80202d18 <pci_init+0x18>
ffffffff80202dfd:	85 c9                	test   %ecx,%ecx
ffffffff80202dff:	75 65                	jne    ffffffff80202e66 <pci_init+0x166>
ffffffff80202e01:	48 83 c4 08          	add    $0x8,%rsp
ffffffff80202e05:	5b                   	pop    %rbx
ffffffff80202e06:	5d                   	pop    %rbp
ffffffff80202e07:	41 5c                	pop    %r12
ffffffff80202e09:	41 5d                	pop    %r13
ffffffff80202e0b:	41 5e                	pop    %r14
ffffffff80202e0d:	41 5f                	pop    %r15
ffffffff80202e0f:	c3                   	ret
ffffffff80202e10:	48 c7 c7 58 4f 20 80 	mov    $0xffffffff80204f58,%rdi
ffffffff80202e17:	e8 04 dc ff ff       	call   ffffffff80200a20 <vga_print>
ffffffff80202e1c:	44 89 f2             	mov    %r14d,%edx
ffffffff80202e1f:	89 ee                	mov    %ebp,%esi
ffffffff80202e21:	44 89 ef             	mov    %r13d,%edi
ffffffff80202e24:	e8 67 00 00 00       	call   ffffffff80202e90 <usb_xhci_init>
ffffffff80202e29:	e9 59 ff ff ff       	jmp    ffffffff80202d87 <pci_init+0x87>
ffffffff80202e2e:	66 90                	xchg   %ax,%ax
ffffffff80202e30:	48 c7 c7 08 4f 20 80 	mov    $0xffffffff80204f08,%rdi
ffffffff80202e37:	e8 e4 db ff ff       	call   ffffffff80200a20 <vga_print>
ffffffff80202e3c:	e9 46 ff ff ff       	jmp    ffffffff80202d87 <pci_init+0x87>
ffffffff80202e41:	0f 1f 80 00 00 00 00 	nopl   0x0(%rax)
ffffffff80202e48:	48 c7 c7 30 4f 20 80 	mov    $0xffffffff80204f30,%rdi
ffffffff80202e4f:	e8 cc db ff ff       	call   ffffffff80200a20 <vga_print>
ffffffff80202e54:	44 89 f2             	mov    %r14d,%edx
ffffffff80202e57:	89 ee                	mov    %ebp,%esi
ffffffff80202e59:	44 89 ef             	mov    %r13d,%edi
ffffffff80202e5c:	e8 1f 00 00 00       	call   ffffffff80202e80 <usb_ehci_init>
ffffffff80202e61:	e9 21 ff ff ff       	jmp    ffffffff80202d87 <pci_init+0x87>
ffffffff80202e66:	48 83 c4 08          	add    $0x8,%rsp
ffffffff80202e6a:	48 c7 c7 b0 4f 20 80 	mov    $0xffffffff80204fb0,%rdi
ffffffff80202e71:	5b                   	pop    %rbx
ffffffff80202e72:	5d                   	pop    %rbp
ffffffff80202e73:	41 5c                	pop    %r12
ffffffff80202e75:	41 5d                	pop    %r13
ffffffff80202e77:	41 5e                	pop    %r14
ffffffff80202e79:	41 5f                	pop    %r15
ffffffff80202e7b:	e9 a0 db ff ff       	jmp    ffffffff80200a20 <vga_print>

ffffffff80202e80 <usb_ehci_init>:
ffffffff80202e80:	48 c7 c7 08 50 20 80 	mov    $0xffffffff80205008,%rdi
ffffffff80202e87:	e9 94 db ff ff       	jmp    ffffffff80200a20 <vga_print>
ffffffff80202e8c:	0f 1f 40 00          	nopl   0x0(%rax)

ffffffff80202e90 <usb_xhci_init>:
ffffffff80202e90:	48 c7 c7 38 50 20 80 	mov    $0xffffffff80205038,%rdi
ffffffff80202e97:	e9 84 db ff ff       	jmp    ffffffff80200a20 <vga_print>
ffffffff80202e9c:	0f 1f 40 00          	nopl   0x0(%rax)

ffffffff80202ea0 <serial_init>:
ffffffff80202ea0:	31 f6                	xor    %esi,%esi
ffffffff80202ea2:	ba f9 03 00 00       	mov    $0x3f9,%edx
ffffffff80202ea7:	89 f0                	mov    %esi,%eax
ffffffff80202ea9:	ee                   	out    %al,(%dx)
ffffffff80202eaa:	b8 80 ff ff ff       	mov    $0xffffff80,%eax
ffffffff80202eaf:	ba fb 03 00 00       	mov    $0x3fb,%edx
ffffffff80202eb4:	ee                   	out    %al,(%dx)
ffffffff80202eb5:	b9 03 00 00 00       	mov    $0x3,%ecx
ffffffff80202eba:	ba f8 03 00 00       	mov    $0x3f8,%edx
ffffffff80202ebf:	89 c8                	mov    %ecx,%eax
ffffffff80202ec1:	ee                   	out    %al,(%dx)
ffffffff80202ec2:	ba f9 03 00 00       	mov    $0x3f9,%edx
ffffffff80202ec7:	89 f0                	mov    %esi,%eax
ffffffff80202ec9:	ee                   	out    %al,(%dx)
ffffffff80202eca:	ba fb 03 00 00       	mov    $0x3fb,%edx
ffffffff80202ecf:	89 c8                	mov    %ecx,%eax
ffffffff80202ed1:	ee                   	out    %al,(%dx)
ffffffff80202ed2:	b8 c7 ff ff ff       	mov    $0xffffffc7,%eax
ffffffff80202ed7:	ba fa 03 00 00       	mov    $0x3fa,%edx
ffffffff80202edc:	ee                   	out    %al,(%dx)
ffffffff80202edd:	b8 0b 00 00 00       	mov    $0xb,%eax
ffffffff80202ee2:	ba fc 03 00 00       	mov    $0x3fc,%edx
ffffffff80202ee7:	ee                   	out    %al,(%dx)
ffffffff80202ee8:	c3                   	ret
ffffffff80202ee9:	0f 1f 80 00 00 00 00 	nopl   0x0(%rax)

ffffffff80202ef0 <is_transmit_empty>:
ffffffff80202ef0:	ba fd 03 00 00       	mov    $0x3fd,%edx
ffffffff80202ef5:	ec                   	in     (%dx),%al
ffffffff80202ef6:	83 e0 20             	and    $0x20,%eax
ffffffff80202ef9:	c3                   	ret
ffffffff80202efa:	66 0f 1f 44 00 00    	nopw   0x0(%rax,%rax,1)

ffffffff80202f00 <serial_putchar>:
ffffffff80202f00:	ba fd 03 00 00       	mov    $0x3fd,%edx
ffffffff80202f05:	66 66 2e 0f 1f 84 00 	data16 cs nopw 0x0(%rax,%rax,1)
ffffffff80202f0c:	00 00 00 00 
ffffffff80202f10:	ec                   	in     (%dx),%al
ffffffff80202f11:	a8 20                	test   $0x20,%al
ffffffff80202f13:	74 fb                	je     ffffffff80202f10 <serial_putchar+0x10>
ffffffff80202f15:	ba f8 03 00 00       	mov    $0x3f8,%edx
ffffffff80202f1a:	89 f8                	mov    %edi,%eax
ffffffff80202f1c:	ee                   	out    %al,(%dx)
ffffffff80202f1d:	c3                   	ret
ffffffff80202f1e:	66 90                	xchg   %ax,%ax

ffffffff80202f20 <serial_print>:
ffffffff80202f20:	0f b6 37             	movzbl (%rdi),%esi
ffffffff80202f23:	40 84 f6             	test   %sil,%sil
ffffffff80202f26:	74 3d                	je     ffffffff80202f65 <serial_print+0x45>
ffffffff80202f28:	b9 fd 03 00 00       	mov    $0x3fd,%ecx
ffffffff80202f2d:	41 b8 f8 03 00 00    	mov    $0x3f8,%r8d
ffffffff80202f33:	66 66 2e 0f 1f 84 00 	data16 cs nopw 0x0(%rax,%rax,1)
ffffffff80202f3a:	00 00 00 00 
ffffffff80202f3e:	66 90                	xchg   %ax,%ax
ffffffff80202f40:	48 83 c7 01          	add    $0x1,%rdi
ffffffff80202f44:	66 66 2e 0f 1f 84 00 	data16 cs nopw 0x0(%rax,%rax,1)
ffffffff80202f4b:	00 00 00 00 
ffffffff80202f4f:	90                   	nop
ffffffff80202f50:	89 ca                	mov    %ecx,%edx
ffffffff80202f52:	ec                   	in     (%dx),%al
ffffffff80202f53:	a8 20                	test   $0x20,%al
ffffffff80202f55:	74 f9                	je     ffffffff80202f50 <serial_print+0x30>
ffffffff80202f57:	89 f0                	mov    %esi,%eax
ffffffff80202f59:	44 89 c2             	mov    %r8d,%edx
ffffffff80202f5c:	ee                   	out    %al,(%dx)
ffffffff80202f5d:	0f b6 37             	movzbl (%rdi),%esi
ffffffff80202f60:	40 84 f6             	test   %sil,%sil
ffffffff80202f63:	75 db                	jne    ffffffff80202f40 <serial_print+0x20>
ffffffff80202f65:	c3                   	ret
ffffffff80202f66:	66 2e 0f 1f 84 00 00 	cs nopw 0x0(%rax,%rax,1)
ffffffff80202f6d:	00 00 00 
ffffffff80202f70:	66 2e 0f 1f 84 00 00 	cs nopw 0x0(%rax,%rax,1)
ffffffff80202f77:	00 00 00 
ffffffff80202f7a:	66 0f 1f 44 00 00    	nopw   0x0(%rax,%rax,1)

ffffffff80202f80 <memset>:
ffffffff80202f80:	48 89 f8             	mov    %rdi,%rax
ffffffff80202f83:	41 89 f0             	mov    %esi,%r8d
ffffffff80202f86:	48 8d 3c 17          	lea    (%rdi,%rdx,1),%rdi
ffffffff80202f8a:	48 89 c1             	mov    %rax,%rcx
ffffffff80202f8d:	48 85 d2             	test   %rdx,%rdx
ffffffff80202f90:	74 2e                	je     ffffffff80202fc0 <memset+0x40>
ffffffff80202f92:	48 89 fa             	mov    %rdi,%rdx
ffffffff80202f95:	48 29 c2             	sub    %rax,%rdx
ffffffff80202f98:	83 e2 01             	and    $0x1,%edx
ffffffff80202f9b:	74 13                	je     ffffffff80202fb0 <memset+0x30>
ffffffff80202f9d:	48 8d 48 01          	lea    0x1(%rax),%rcx
ffffffff80202fa1:	40 88 71 ff          	mov    %sil,-0x1(%rcx)
ffffffff80202fa5:	48 39 cf             	cmp    %rcx,%rdi
ffffffff80202fa8:	74 17                	je     ffffffff80202fc1 <memset+0x41>
ffffffff80202faa:	66 0f 1f 44 00 00    	nopw   0x0(%rax,%rax,1)
ffffffff80202fb0:	44 88 01             	mov    %r8b,(%rcx)
ffffffff80202fb3:	48 83 c1 02          	add    $0x2,%rcx
ffffffff80202fb7:	44 88 41 ff          	mov    %r8b,-0x1(%rcx)
ffffffff80202fbb:	48 39 cf             	cmp    %rcx,%rdi
ffffffff80202fbe:	75 f0                	jne    ffffffff80202fb0 <memset+0x30>
ffffffff80202fc0:	c3                   	ret
ffffffff80202fc1:	c3                   	ret
ffffffff80202fc2:	66 66 2e 0f 1f 84 00 	data16 cs nopw 0x0(%rax,%rax,1)
ffffffff80202fc9:	00 00 00 00 
ffffffff80202fcd:	0f 1f 00             	nopl   (%rax)

ffffffff80202fd0 <memcpy>:
ffffffff80202fd0:	48 89 f8             	mov    %rdi,%rax
ffffffff80202fd3:	48 85 d2             	test   %rdx,%rdx
ffffffff80202fd6:	74 1a                	je     ffffffff80202ff2 <memcpy+0x22>
ffffffff80202fd8:	31 c9                	xor    %ecx,%ecx
ffffffff80202fda:	66 0f 1f 44 00 00    	nopw   0x0(%rax,%rax,1)
ffffffff80202fe0:	44 0f b6 04 0e       	movzbl (%rsi,%rcx,1),%r8d
ffffffff80202fe5:	44 88 04 08          	mov    %r8b,(%rax,%rcx,1)
ffffffff80202fe9:	48 83 c1 01          	add    $0x1,%rcx
ffffffff80202fed:	48 39 d1             	cmp    %rdx,%rcx
ffffffff80202ff0:	75 ee                	jne    ffffffff80202fe0 <memcpy+0x10>
ffffffff80202ff2:	c3                   	ret
ffffffff80202ff3:	66 66 2e 0f 1f 84 00 	data16 cs nopw 0x0(%rax,%rax,1)
ffffffff80202ffa:	00 00 00 00 
ffffffff80202ffe:	66 90                	xchg   %ax,%ax

ffffffff80203000 <memcmp>:
ffffffff80203000:	48 85 d2             	test   %rdx,%rdx
ffffffff80203003:	74 3b                	je     ffffffff80203040 <memcmp+0x40>
ffffffff80203005:	31 c0                	xor    %eax,%eax
ffffffff80203007:	eb 20                	jmp    ffffffff80203029 <memcmp+0x29>
ffffffff80203009:	66 66 2e 0f 1f 84 00 	data16 cs nopw 0x0(%rax,%rax,1)
ffffffff80203010:	00 00 00 00 
ffffffff80203014:	66 66 2e 0f 1f 84 00 	data16 cs nopw 0x0(%rax,%rax,1)
ffffffff8020301b:	00 00 00 00 
ffffffff8020301f:	90                   	nop
ffffffff80203020:	48 83 c0 01          	add    $0x1,%rax
ffffffff80203024:	48 39 c2             	cmp    %rax,%rdx
ffffffff80203027:	74 17                	je     ffffffff80203040 <memcmp+0x40>
ffffffff80203029:	0f b6 0c 07          	movzbl (%rdi,%rax,1),%ecx
ffffffff8020302d:	44 0f b6 04 06       	movzbl (%rsi,%rax,1),%r8d
ffffffff80203032:	44 38 c1             	cmp    %r8b,%cl
ffffffff80203035:	74 e9                	je     ffffffff80203020 <memcmp+0x20>
ffffffff80203037:	0f b6 c1             	movzbl %cl,%eax
ffffffff8020303a:	44 29 c0             	sub    %r8d,%eax
ffffffff8020303d:	c3                   	ret
ffffffff8020303e:	66 90                	xchg   %ax,%ax
ffffffff80203040:	31 c0                	xor    %eax,%eax
ffffffff80203042:	c3                   	ret
ffffffff80203043:	66 66 2e 0f 1f 84 00 	data16 cs nopw 0x0(%rax,%rax,1)
ffffffff8020304a:	00 00 00 00 
ffffffff8020304e:	66 90                	xchg   %ax,%ax

ffffffff80203050 <strlen>:
ffffffff80203050:	31 c0                	xor    %eax,%eax
ffffffff80203052:	80 3f 00             	cmpb   $0x0,(%rdi)
ffffffff80203055:	74 19                	je     ffffffff80203070 <strlen+0x20>
ffffffff80203057:	66 0f 1f 84 00 00 00 	nopw   0x0(%rax,%rax,1)
ffffffff8020305e:	00 00 
ffffffff80203060:	48 83 c0 01          	add    $0x1,%rax
ffffffff80203064:	80 3c 07 00          	cmpb   $0x0,(%rdi,%rax,1)
ffffffff80203068:	75 f6                	jne    ffffffff80203060 <strlen+0x10>
ffffffff8020306a:	c3                   	ret
ffffffff8020306b:	0f 1f 44 00 00       	nopl   0x0(%rax,%rax,1)
ffffffff80203070:	c3                   	ret
ffffffff80203071:	66 66 2e 0f 1f 84 00 	data16 cs nopw 0x0(%rax,%rax,1)
ffffffff80203078:	00 00 00 00 
ffffffff8020307c:	0f 1f 40 00          	nopl   0x0(%rax)

ffffffff80203080 <strcmp>:
ffffffff80203080:	eb 2a                	jmp    ffffffff802030ac <strcmp+0x2c>
ffffffff80203082:	66 66 2e 0f 1f 84 00 	data16 cs nopw 0x0(%rax,%rax,1)
ffffffff80203089:	00 00 00 00 
ffffffff8020308d:	66 66 2e 0f 1f 84 00 	data16 cs nopw 0x0(%rax,%rax,1)
ffffffff80203094:	00 00 00 00 
ffffffff80203098:	0f 1f 84 00 00 00 00 	nopl   0x0(%rax,%rax,1)
ffffffff8020309f:	00 
ffffffff802030a0:	38 06                	cmp    %al,(%rsi)
ffffffff802030a2:	75 11                	jne    ffffffff802030b5 <strcmp+0x35>
ffffffff802030a4:	48 83 c7 01          	add    $0x1,%rdi
ffffffff802030a8:	48 83 c6 01          	add    $0x1,%rsi
ffffffff802030ac:	0f b6 07             	movzbl (%rdi),%eax
ffffffff802030af:	84 c0                	test   %al,%al
ffffffff802030b1:	75 ed                	jne    ffffffff802030a0 <strcmp+0x20>
ffffffff802030b3:	31 c0                	xor    %eax,%eax
ffffffff802030b5:	0f b6 16             	movzbl (%rsi),%edx
ffffffff802030b8:	29 d0                	sub    %edx,%eax
ffffffff802030ba:	c3                   	ret
ffffffff802030bb:	0f 1f 44 00 00       	nopl   0x0(%rax,%rax,1)

ffffffff802030c0 <strncmp>:
ffffffff802030c0:	48 85 d2             	test   %rdx,%rdx
ffffffff802030c3:	74 33                	je     ffffffff802030f8 <strncmp+0x38>
ffffffff802030c5:	31 c0                	xor    %eax,%eax
ffffffff802030c7:	eb 14                	jmp    ffffffff802030dd <strncmp+0x1d>
ffffffff802030c9:	0f 1f 80 00 00 00 00 	nopl   0x0(%rax)
ffffffff802030d0:	84 c9                	test   %cl,%cl
ffffffff802030d2:	74 24                	je     ffffffff802030f8 <strncmp+0x38>
ffffffff802030d4:	48 83 c0 01          	add    $0x1,%rax
ffffffff802030d8:	48 39 c2             	cmp    %rax,%rdx
ffffffff802030db:	74 1b                	je     ffffffff802030f8 <strncmp+0x38>
ffffffff802030dd:	0f b6 0c 07          	movzbl (%rdi,%rax,1),%ecx
ffffffff802030e1:	44 0f b6 04 06       	movzbl (%rsi,%rax,1),%r8d
ffffffff802030e6:	44 38 c1             	cmp    %r8b,%cl
ffffffff802030e9:	74 e5                	je     ffffffff802030d0 <strncmp+0x10>
ffffffff802030eb:	0f b6 c1             	movzbl %cl,%eax
ffffffff802030ee:	44 29 c0             	sub    %r8d,%eax
ffffffff802030f1:	c3                   	ret
ffffffff802030f2:	66 0f 1f 44 00 00    	nopw   0x0(%rax,%rax,1)
ffffffff802030f8:	31 c0                	xor    %eax,%eax
ffffffff802030fa:	c3                   	ret
ffffffff802030fb:	0f 1f 44 00 00       	nopl   0x0(%rax,%rax,1)

ffffffff80203100 <syscall_init>:
ffffffff80203100:	b9 80 00 00 c0       	mov    $0xc0000080,%ecx
ffffffff80203105:	0f 32                	rdmsr
ffffffff80203107:	48 c1 e2 20          	shl    $0x20,%rdx
ffffffff8020310b:	89 c0                	mov    %eax,%eax
ffffffff8020310d:	48 09 c2             	or     %rax,%rdx
ffffffff80203110:	48 89 d0             	mov    %rdx,%rax
ffffffff80203113:	48 c1 ea 20          	shr    $0x20,%rdx
ffffffff80203117:	48 83 c8 01          	or     $0x1,%rax
ffffffff8020311b:	0f 30                	wrmsr
ffffffff8020311d:	b9 81 00 00 c0       	mov    $0xc0000081,%ecx
ffffffff80203122:	ba 08 00 10 00       	mov    $0x100008,%edx
ffffffff80203127:	31 c0                	xor    %eax,%eax
ffffffff80203129:	0f 30                	wrmsr
ffffffff8020312b:	48 c7 c0 a0 38 20 80 	mov    $0xffffffff802038a0,%rax
ffffffff80203132:	b9 82 00 00 c0       	mov    $0xc0000082,%ecx
ffffffff80203137:	48 89 c6             	mov    %rax,%rsi
ffffffff8020313a:	48 c1 ee 20          	shr    $0x20,%rsi
ffffffff8020313e:	48 89 f2             	mov    %rsi,%rdx
ffffffff80203141:	0f 30                	wrmsr
ffffffff80203143:	b9 84 00 00 c0       	mov    $0xc0000084,%ecx
ffffffff80203148:	b8 00 02 00 00       	mov    $0x200,%eax
ffffffff8020314d:	31 d2                	xor    %edx,%edx
ffffffff8020314f:	0f 30                	wrmsr
ffffffff80203151:	c3                   	ret
ffffffff80203152:	66 66 2e 0f 1f 84 00 	data16 cs nopw 0x0(%rax,%rax,1)
ffffffff80203159:	00 00 00 00 
ffffffff8020315d:	0f 1f 00             	nopl   (%rax)

ffffffff80203160 <syscall_handler_c>:
ffffffff80203160:	48 89 f8             	mov    %rdi,%rax
ffffffff80203163:	48 83 ff 3c          	cmp    $0x3c,%rdi
ffffffff80203167:	77 2f                	ja     ffffffff80203198 <syscall_handler_c+0x38>
ffffffff80203169:	48 89 f7             	mov    %rsi,%rdi
ffffffff8020316c:	53                   	push   %rbx
ffffffff8020316d:	48 89 d6             	mov    %rdx,%rsi
ffffffff80203170:	ff 24 c5 a0 52 20 80 	jmp    *-0x7fdfad60(,%rax,8)
ffffffff80203177:	66 0f 1f 84 00 00 00 	nopw   0x0(%rax,%rax,1)
ffffffff8020317e:	00 00 
ffffffff80203180:	e8 bb d4 ff ff       	call   ffffffff80200640 <vga_clear>
ffffffff80203185:	66 66 2e 0f 1f 84 00 	data16 cs nopw 0x0(%rax,%rax,1)
ffffffff8020318c:	00 00 00 00 
ffffffff80203190:	31 c0                	xor    %eax,%eax
ffffffff80203192:	5b                   	pop    %rbx
ffffffff80203193:	c3                   	ret
ffffffff80203194:	0f 1f 40 00          	nopl   0x0(%rax)
ffffffff80203198:	31 c0                	xor    %eax,%eax
ffffffff8020319a:	c3                   	ret
ffffffff8020319b:	0f 1f 44 00 00       	nopl   0x0(%rax,%rax,1)
ffffffff802031a0:	0f 20 db             	mov    %cr3,%rbx
ffffffff802031a3:	e8 08 e6 ff ff       	call   ffffffff802017b0 <vmm_restore_kernel_pagemap>
ffffffff802031a8:	48 89 df             	mov    %rbx,%rdi
ffffffff802031ab:	e8 90 e7 ff ff       	call   ffffffff80201940 <vmm_free_pagemap>
ffffffff802031b0:	e8 53 07 00 00       	call   ffffffff80203908 <asm_return_to_kernel>
ffffffff802031b5:	31 c0                	xor    %eax,%eax
ffffffff802031b7:	eb d9                	jmp    ffffffff80203192 <syscall_handler_c+0x32>
ffffffff802031b9:	0f 1f 80 00 00 00 00 	nopl   0x0(%rax)
ffffffff802031c0:	48 89 d7             	mov    %rdx,%rdi
ffffffff802031c3:	e8 58 d8 ff ff       	call   ffffffff80200a20 <vga_print>
ffffffff802031c8:	31 c0                	xor    %eax,%eax
ffffffff802031ca:	eb c6                	jmp    ffffffff80203192 <syscall_handler_c+0x32>
ffffffff802031cc:	0f 1f 40 00          	nopl   0x0(%rax)
ffffffff802031d0:	e8 1b d5 ff ff       	call   ffffffff802006f0 <vga_set_cursor>
ffffffff802031d5:	31 c0                	xor    %eax,%eax
ffffffff802031d7:	eb b9                	jmp    ffffffff80203192 <syscall_handler_c+0x32>
ffffffff802031d9:	0f 1f 80 00 00 00 00 	nopl   0x0(%rax)
ffffffff802031e0:	40 0f be ff          	movsbl %dil,%edi
ffffffff802031e4:	e8 f7 d5 ff ff       	call   ffffffff802007e0 <vga_putchar>
ffffffff802031e9:	31 c0                	xor    %eax,%eax
ffffffff802031eb:	eb a5                	jmp    ffffffff80203192 <syscall_handler_c+0x32>
ffffffff802031ed:	0f 1f 00             	nopl   (%rax)
ffffffff802031f0:	0f b6 f2             	movzbl %dl,%esi
ffffffff802031f3:	40 0f b6 ff          	movzbl %dil,%edi
ffffffff802031f7:	e8 44 d5 ff ff       	call   ffffffff80200740 <vga_set_color>
ffffffff802031fc:	31 c0                	xor    %eax,%eax
ffffffff802031fe:	eb 92                	jmp    ffffffff80203192 <syscall_handler_c+0x32>
ffffffff80203200:	5b                   	pop    %rbx
ffffffff80203201:	e9 fa d4 ff ff       	jmp    ffffffff80200700 <vga_get_max_rows>
ffffffff80203206:	66 2e 0f 1f 84 00 00 	cs nopw 0x0(%rax,%rax,1)
ffffffff8020320d:	00 00 00 
ffffffff80203210:	e8 bb de ff ff       	call   ffffffff802010d0 <keyboard_getchar>
ffffffff80203215:	5b                   	pop    %rbx
ffffffff80203216:	48 0f be c0          	movsbq %al,%rax
ffffffff8020321a:	c3                   	ret
ffffffff8020321b:	0f 1f 44 00 00       	nopl   0x0(%rax,%rax,1)
ffffffff80203220:	e8 0b f2 ff ff       	call   ffffffff80202430 <fat16_read_file>
ffffffff80203225:	5b                   	pop    %rbx
ffffffff80203226:	48 98                	cltq
ffffffff80203228:	c3                   	ret
ffffffff80203229:	0f 1f 80 00 00 00 00 	nopl   0x0(%rax)
ffffffff80203230:	89 ca                	mov    %ecx,%edx
ffffffff80203232:	e8 79 f4 ff ff       	call   ffffffff802026b0 <fat16_write_file>
ffffffff80203237:	31 c0                	xor    %eax,%eax
ffffffff80203239:	e9 54 ff ff ff       	jmp    ffffffff80203192 <syscall_handler_c+0x32>
ffffffff8020323e:	66 90                	xchg   %ax,%ax

ffffffff80203240 <jump_usermode>:
ffffffff80203240:	41 54                	push   %r12
ffffffff80203242:	49 89 d4             	mov    %rdx,%r12
ffffffff80203245:	55                   	push   %rbp
ffffffff80203246:	48 89 f5             	mov    %rsi,%rbp
ffffffff80203249:	53                   	push   %rbx
ffffffff8020324a:	48 89 fb             	mov    %rdi,%rbx
ffffffff8020324d:	48 c7 c7 c0 98 20 80 	mov    $0xffffffff802098c0,%rdi
ffffffff80203254:	e8 37 da ff ff       	call   ffffffff80200c90 <tss_set_kernel_stack>
ffffffff80203259:	4c 89 e2             	mov    %r12,%rdx
ffffffff8020325c:	48 89 ee             	mov    %rbp,%rsi
ffffffff8020325f:	48 89 df             	mov    %rbx,%rdi
ffffffff80203262:	48 c7 05 33 56 00 00 	movq   $0xffffffff802098c0,0x5633(%rip)        # ffffffff802088a0 <current_kernel_stack>
ffffffff80203269:	c0 98 20 80 
ffffffff8020326d:	5b                   	pop    %rbx
ffffffff8020326e:	5d                   	pop    %rbp
ffffffff8020326f:	41 5c                	pop    %r12
ffffffff80203271:	e9 6e 06 00 00       	jmp    ffffffff802038e4 <asm_jump_usermode>
ffffffff80203276:	66 2e 0f 1f 84 00 00 	cs nopw 0x0(%rax,%rax,1)
ffffffff8020327d:	00 00 00 

ffffffff80203280 <process_exec>:
ffffffff80203280:	41 57                	push   %r15
ffffffff80203282:	41 56                	push   %r14
ffffffff80203284:	49 89 f6             	mov    %rsi,%r14
ffffffff80203287:	41 55                	push   %r13
ffffffff80203289:	41 54                	push   %r12
ffffffff8020328b:	55                   	push   %rbp
ffffffff8020328c:	48 89 fd             	mov    %rdi,%rbp
ffffffff8020328f:	53                   	push   %rbx
ffffffff80203290:	48 83 ec 58          	sub    $0x58,%rsp
ffffffff80203294:	e8 27 f3 ff ff       	call   ffffffff802025c0 <fat16_get_file_size>
ffffffff80203299:	48 c7 c7 68 50 20 80 	mov    $0xffffffff80205068,%rdi
ffffffff802032a0:	85 c0                	test   %eax,%eax
ffffffff802032a2:	0f 84 2f 02 00 00    	je     ffffffff802034d7 <process_exec+0x257>
ffffffff802032a8:	05 ff 0f 00 00       	add    $0xfff,%eax
ffffffff802032ad:	c1 e8 0c             	shr    $0xc,%eax
ffffffff802032b0:	41 89 c5             	mov    %eax,%r13d
ffffffff802032b3:	4c 89 ef             	mov    %r13,%rdi
ffffffff802032b6:	4d 89 ec             	mov    %r13,%r12
ffffffff802032b9:	e8 02 e2 ff ff       	call   ffffffff802014c0 <pmm_alloc_pages>
ffffffff802032be:	48 89 c3             	mov    %rax,%rbx
ffffffff802032c1:	48 85 c0             	test   %rax,%rax
ffffffff802032c4:	0f 84 06 02 00 00    	je     ffffffff802034d0 <process_exec+0x250>
ffffffff802032ca:	4c 8b 05 37 53 00 00 	mov    0x5337(%rip),%r8        # ffffffff80208608 <hhdm_offset>
ffffffff802032d1:	48 89 ef             	mov    %rbp,%rdi
ffffffff802032d4:	49 01 c0             	add    %rax,%r8
ffffffff802032d7:	4c 89 c6             	mov    %r8,%rsi
ffffffff802032da:	4c 89 44 24 08       	mov    %r8,0x8(%rsp)
ffffffff802032df:	e8 4c f1 ff ff       	call   ffffffff80202430 <fat16_read_file>
ffffffff802032e4:	4c 8b 44 24 08       	mov    0x8(%rsp),%r8
ffffffff802032e9:	85 c0                	test   %eax,%eax
ffffffff802032eb:	0f 8e 4f 02 00 00    	jle    ffffffff80203540 <process_exec+0x2c0>
ffffffff802032f1:	41 81 38 7f 45 4c 46 	cmpl   $0x464c457f,(%r8)
ffffffff802032f8:	0f 85 f2 01 00 00    	jne    ffffffff802034f0 <process_exec+0x270>
ffffffff802032fe:	4c 89 44 24 10       	mov    %r8,0x10(%rsp)
ffffffff80203303:	e8 18 e4 ff ff       	call   ffffffff80201720 <vmm_new_pagemap>
ffffffff80203308:	4c 8b 44 24 10       	mov    0x10(%rsp),%r8
ffffffff8020330d:	48 85 c0             	test   %rax,%rax
ffffffff80203310:	48 89 44 24 08       	mov    %rax,0x8(%rsp)
ffffffff80203315:	0f 84 ed 03 00 00    	je     ffffffff80203708 <process_exec+0x488>
ffffffff8020331b:	49 8b 40 20          	mov    0x20(%r8),%rax
ffffffff8020331f:	31 ed                	xor    %ebp,%ebp
ffffffff80203321:	4c 01 c0             	add    %r8,%rax
ffffffff80203324:	66 41 83 78 38 00    	cmpw   $0x0,0x38(%r8)
ffffffff8020332a:	0f 84 7f 02 00 00    	je     ffffffff802035af <process_exec+0x32f>
ffffffff80203330:	48 89 5c 24 30       	mov    %rbx,0x30(%rsp)
ffffffff80203335:	89 ea                	mov    %ebp,%edx
ffffffff80203337:	4c 89 c3             	mov    %r8,%rbx
ffffffff8020333a:	44 89 6c 24 40       	mov    %r13d,0x40(%rsp)
ffffffff8020333f:	4c 89 6c 24 28       	mov    %r13,0x28(%rsp)
ffffffff80203344:	4c 89 74 24 48       	mov    %r14,0x48(%rsp)
ffffffff80203349:	eb 28                	jmp    ffffffff80203373 <process_exec+0xf3>
ffffffff8020334b:	66 66 2e 0f 1f 84 00 	data16 cs nopw 0x0(%rax,%rax,1)
ffffffff80203352:	00 00 00 00 
ffffffff80203356:	66 2e 0f 1f 84 00 00 	cs nopw 0x0(%rax,%rax,1)
ffffffff8020335d:	00 00 00 
ffffffff80203360:	0f b7 4b 38          	movzwl 0x38(%rbx),%ecx
ffffffff80203364:	83 c2 01             	add    $0x1,%edx
ffffffff80203367:	48 83 c0 38          	add    $0x38,%rax
ffffffff8020336b:	39 d1                	cmp    %edx,%ecx
ffffffff8020336d:	0f 8e 25 02 00 00    	jle    ffffffff80203598 <process_exec+0x318>
ffffffff80203373:	83 38 01             	cmpl   $0x1,(%rax)
ffffffff80203376:	75 e8                	jne    ffffffff80203360 <process_exec+0xe0>
ffffffff80203378:	48 8b 68 10          	mov    0x10(%rax),%rbp
ffffffff8020337c:	48 8b 70 28          	mov    0x28(%rax),%rsi
ffffffff80203380:	4c 8b 78 20          	mov    0x20(%rax),%r15
ffffffff80203384:	4c 8b 58 08          	mov    0x8(%rax),%r11
ffffffff80203388:	49 89 e9             	mov    %rbp,%r9
ffffffff8020338b:	49 89 ec             	mov    %rbp,%r12
ffffffff8020338e:	41 81 e1 ff 0f 00 00 	and    $0xfff,%r9d
ffffffff80203395:	49 81 e4 00 f0 ff ff 	and    $0xfffffffffffff000,%r12
ffffffff8020339c:	4d 8d b4 31 ff 0f 00 	lea    0xfff(%r9,%rsi,1),%r14
ffffffff802033a3:	00 
ffffffff802033a4:	49 c1 ee 0c          	shr    $0xc,%r14
ffffffff802033a8:	74 b6                	je     ffffffff80203360 <process_exec+0xe0>
ffffffff802033aa:	49 c1 e6 0c          	shl    $0xc,%r14
ffffffff802033ae:	48 89 44 24 38       	mov    %rax,0x38(%rsp)
ffffffff802033b3:	49 01 ef             	add    %rbp,%r15
ffffffff802033b6:	48 89 5c 24 10       	mov    %rbx,0x10(%rsp)
ffffffff802033bb:	4f 8d 2c 26          	lea    (%r14,%r12,1),%r13
ffffffff802033bf:	4c 89 5c 24 18       	mov    %r11,0x18(%rsp)
ffffffff802033c4:	4c 89 4c 24 20       	mov    %r9,0x20(%rsp)
ffffffff802033c9:	89 54 24 44          	mov    %edx,0x44(%rsp)
ffffffff802033cd:	e9 8f 00 00 00       	jmp    ffffffff80203461 <process_exec+0x1e1>
ffffffff802033d2:	66 0f 1f 44 00 00    	nopw   0x0(%rax,%rax,1)
ffffffff802033d8:	48 8b 7c 24 08       	mov    0x8(%rsp),%rdi
ffffffff802033dd:	48 89 c2             	mov    %rax,%rdx
ffffffff802033e0:	b9 06 00 00 00       	mov    $0x6,%ecx
ffffffff802033e5:	4c 89 e6             	mov    %r12,%rsi
ffffffff802033e8:	4d 8d b4 24 00 10 00 	lea    0x1000(%r12),%r14
ffffffff802033ef:	00 
ffffffff802033f0:	e8 db e3 ff ff       	call   ffffffff802017d0 <vmm_map_page>
ffffffff802033f5:	48 03 1d 0c 52 00 00 	add    0x520c(%rip),%rbx        # ffffffff80208608 <hhdm_offset>
ffffffff802033fc:	ba 00 10 00 00       	mov    $0x1000,%edx
ffffffff80203401:	31 f6                	xor    %esi,%esi
ffffffff80203403:	48 89 df             	mov    %rbx,%rdi
ffffffff80203406:	e8 75 fb ff ff       	call   ffffffff80202f80 <memset>
ffffffff8020340b:	4c 39 f5             	cmp    %r14,%rbp
ffffffff8020340e:	73 45                	jae    ffffffff80203455 <process_exec+0x1d5>
ffffffff80203410:	4d 39 fc             	cmp    %r15,%r12
ffffffff80203413:	73 40                	jae    ffffffff80203455 <process_exec+0x1d5>
ffffffff80203415:	ba 00 10 00 00       	mov    $0x1000,%edx
ffffffff8020341a:	49 39 ec             	cmp    %rbp,%r12
ffffffff8020341d:	73 0e                	jae    ffffffff8020342d <process_exec+0x1ad>
ffffffff8020341f:	48 8b 44 24 20       	mov    0x20(%rsp),%rax
ffffffff80203424:	49 01 c4             	add    %rax,%r12
ffffffff80203427:	48 01 c3             	add    %rax,%rbx
ffffffff8020342a:	48 29 c2             	sub    %rax,%rdx
ffffffff8020342d:	48 8b 74 24 18       	mov    0x18(%rsp),%rsi
ffffffff80203432:	4c 89 f8             	mov    %r15,%rax
ffffffff80203435:	48 89 df             	mov    %rbx,%rdi
ffffffff80203438:	4c 29 e0             	sub    %r12,%rax
ffffffff8020343b:	48 29 ee             	sub    %rbp,%rsi
ffffffff8020343e:	4c 01 e6             	add    %r12,%rsi
ffffffff80203441:	4d 39 f7             	cmp    %r14,%r15
ffffffff80203444:	48 0f 42 d0          	cmovb  %rax,%rdx
ffffffff80203448:	48 8b 44 24 10       	mov    0x10(%rsp),%rax
ffffffff8020344d:	48 01 c6             	add    %rax,%rsi
ffffffff80203450:	e8 7b fb ff ff       	call   ffffffff80202fd0 <memcpy>
ffffffff80203455:	4d 39 f5             	cmp    %r14,%r13
ffffffff80203458:	0f 84 22 01 00 00    	je     ffffffff80203580 <process_exec+0x300>
ffffffff8020345e:	4d 89 f4             	mov    %r14,%r12
ffffffff80203461:	e8 5a df ff ff       	call   ffffffff802013c0 <pmm_alloc_page>
ffffffff80203466:	48 89 c3             	mov    %rax,%rbx
ffffffff80203469:	48 85 c0             	test   %rax,%rax
ffffffff8020346c:	0f 85 66 ff ff ff    	jne    ffffffff802033d8 <process_exec+0x158>
ffffffff80203472:	44 8b 64 24 40       	mov    0x40(%rsp),%r12d
ffffffff80203477:	48 c7 c7 e0 50 20 80 	mov    $0xffffffff802050e0,%rdi
ffffffff8020347e:	4c 8b 6c 24 28       	mov    0x28(%rsp),%r13
ffffffff80203483:	48 8b 5c 24 30       	mov    0x30(%rsp),%rbx
ffffffff80203488:	e8 93 d5 ff ff       	call   ffffffff80200a20 <vga_print>
ffffffff8020348d:	45 85 e4             	test   %r12d,%r12d
ffffffff80203490:	74 26                	je     ffffffff802034b8 <process_exec+0x238>
ffffffff80203492:	31 ed                	xor    %ebp,%ebp
ffffffff80203494:	66 66 2e 0f 1f 84 00 	data16 cs nopw 0x0(%rax,%rax,1)
ffffffff8020349b:	00 00 00 00 
ffffffff8020349f:	90                   	nop
ffffffff802034a0:	48 89 df             	mov    %rbx,%rdi
ffffffff802034a3:	48 83 c5 01          	add    $0x1,%rbp
ffffffff802034a7:	48 81 c3 00 10 00 00 	add    $0x1000,%rbx
ffffffff802034ae:	e8 0d e2 ff ff       	call   ffffffff802016c0 <pmm_free_page>
ffffffff802034b3:	49 39 ed             	cmp    %rbp,%r13
ffffffff802034b6:	75 e8                	jne    ffffffff802034a0 <process_exec+0x220>
ffffffff802034b8:	48 83 c4 58          	add    $0x58,%rsp
ffffffff802034bc:	5b                   	pop    %rbx
ffffffff802034bd:	5d                   	pop    %rbp
ffffffff802034be:	41 5c                	pop    %r12
ffffffff802034c0:	41 5d                	pop    %r13
ffffffff802034c2:	41 5e                	pop    %r14
ffffffff802034c4:	41 5f                	pop    %r15
ffffffff802034c6:	c3                   	ret
ffffffff802034c7:	66 0f 1f 84 00 00 00 	nopw   0x0(%rax,%rax,1)
ffffffff802034ce:	00 00 
ffffffff802034d0:	48 c7 c7 90 50 20 80 	mov    $0xffffffff80205090,%rdi
ffffffff802034d7:	48 83 c4 58          	add    $0x58,%rsp
ffffffff802034db:	5b                   	pop    %rbx
ffffffff802034dc:	5d                   	pop    %rbp
ffffffff802034dd:	41 5c                	pop    %r12
ffffffff802034df:	41 5d                	pop    %r13
ffffffff802034e1:	41 5e                	pop    %r14
ffffffff802034e3:	41 5f                	pop    %r15
ffffffff802034e5:	e9 36 d5 ff ff       	jmp    ffffffff80200a20 <vga_print>
ffffffff802034ea:	66 0f 1f 44 00 00    	nopw   0x0(%rax,%rax,1)
ffffffff802034f0:	48 c7 c7 bc 4b 20 80 	mov    $0xffffffff80204bbc,%rdi
ffffffff802034f7:	e8 24 d5 ff ff       	call   ffffffff80200a20 <vga_print>
ffffffff802034fc:	45 85 ed             	test   %r13d,%r13d
ffffffff802034ff:	74 b7                	je     ffffffff802034b8 <process_exec+0x238>
ffffffff80203501:	31 ed                	xor    %ebp,%ebp
ffffffff80203503:	66 66 2e 0f 1f 84 00 	data16 cs nopw 0x0(%rax,%rax,1)
ffffffff8020350a:	00 00 00 00 
ffffffff8020350e:	66 90                	xchg   %ax,%ax
ffffffff80203510:	48 89 df             	mov    %rbx,%rdi
ffffffff80203513:	48 83 c5 01          	add    $0x1,%rbp
ffffffff80203517:	48 81 c3 00 10 00 00 	add    $0x1000,%rbx
ffffffff8020351e:	e8 9d e1 ff ff       	call   ffffffff802016c0 <pmm_free_page>
ffffffff80203523:	49 39 ed             	cmp    %rbp,%r13
ffffffff80203526:	75 e8                	jne    ffffffff80203510 <process_exec+0x290>
ffffffff80203528:	48 83 c4 58          	add    $0x58,%rsp
ffffffff8020352c:	5b                   	pop    %rbx
ffffffff8020352d:	5d                   	pop    %rbp
ffffffff8020352e:	41 5c                	pop    %r12
ffffffff80203530:	41 5d                	pop    %r13
ffffffff80203532:	41 5e                	pop    %r14
ffffffff80203534:	41 5f                	pop    %r15
ffffffff80203536:	c3                   	ret
ffffffff80203537:	66 0f 1f 84 00 00 00 	nopw   0x0(%rax,%rax,1)
ffffffff8020353e:	00 00 
ffffffff80203540:	31 ed                	xor    %ebp,%ebp
ffffffff80203542:	45 85 ed             	test   %r13d,%r13d
ffffffff80203545:	0f 84 6d ff ff ff    	je     ffffffff802034b8 <process_exec+0x238>
ffffffff8020354b:	0f 1f 44 00 00       	nopl   0x0(%rax,%rax,1)
ffffffff80203550:	48 89 df             	mov    %rbx,%rdi
ffffffff80203553:	48 83 c5 01          	add    $0x1,%rbp
ffffffff80203557:	48 81 c3 00 10 00 00 	add    $0x1000,%rbx
ffffffff8020355e:	e8 5d e1 ff ff       	call   ffffffff802016c0 <pmm_free_page>
ffffffff80203563:	49 39 ed             	cmp    %rbp,%r13
ffffffff80203566:	75 e8                	jne    ffffffff80203550 <process_exec+0x2d0>
ffffffff80203568:	48 83 c4 58          	add    $0x58,%rsp
ffffffff8020356c:	5b                   	pop    %rbx
ffffffff8020356d:	5d                   	pop    %rbp
ffffffff8020356e:	41 5c                	pop    %r12
ffffffff80203570:	41 5d                	pop    %r13
ffffffff80203572:	41 5e                	pop    %r14
ffffffff80203574:	41 5f                	pop    %r15
ffffffff80203576:	c3                   	ret
ffffffff80203577:	66 0f 1f 84 00 00 00 	nopw   0x0(%rax,%rax,1)
ffffffff8020357e:	00 00 
ffffffff80203580:	48 8b 44 24 38       	mov    0x38(%rsp),%rax
ffffffff80203585:	48 8b 5c 24 10       	mov    0x10(%rsp),%rbx
ffffffff8020358a:	8b 54 24 44          	mov    0x44(%rsp),%edx
ffffffff8020358e:	e9 cd fd ff ff       	jmp    ffffffff80203360 <process_exec+0xe0>
ffffffff80203593:	0f 1f 44 00 00       	nopl   0x0(%rax,%rax,1)
ffffffff80203598:	49 89 d8             	mov    %rbx,%r8
ffffffff8020359b:	44 8b 64 24 40       	mov    0x40(%rsp),%r12d
ffffffff802035a0:	4c 8b 6c 24 28       	mov    0x28(%rsp),%r13
ffffffff802035a5:	48 8b 5c 24 30       	mov    0x30(%rsp),%rbx
ffffffff802035aa:	4c 8b 74 24 48       	mov    0x48(%rsp),%r14
ffffffff802035af:	48 bd 00 10 00 00 00 	movabs $0x700000001000,%rbp
ffffffff802035b6:	70 00 00 
ffffffff802035b9:	4c 89 44 24 10       	mov    %r8,0x10(%rsp)
ffffffff802035be:	e8 fd dd ff ff       	call   ffffffff802013c0 <pmm_alloc_page>
ffffffff802035c3:	48 8b 7c 24 08       	mov    0x8(%rsp),%rdi
ffffffff802035c8:	b9 06 00 00 00       	mov    $0x6,%ecx
ffffffff802035cd:	48 be 00 00 00 00 00 	movabs $0x700000000000,%rsi
ffffffff802035d4:	70 00 00 
ffffffff802035d7:	48 89 c2             	mov    %rax,%rdx
ffffffff802035da:	49 89 c7             	mov    %rax,%r15
ffffffff802035dd:	e8 ee e1 ff ff       	call   ffffffff802017d0 <vmm_map_page>
ffffffff802035e2:	4d 85 f6             	test   %r14,%r14
ffffffff802035e5:	4c 8b 44 24 10       	mov    0x10(%rsp),%r8
ffffffff802035ea:	0f 84 81 00 00 00    	je     ffffffff80203671 <process_exec+0x3f1>
ffffffff802035f0:	41 80 3e 00          	cmpb   $0x0,(%r14)
ffffffff802035f4:	0f 84 f8 00 00 00    	je     ffffffff802036f2 <process_exec+0x472>
ffffffff802035fa:	b8 01 00 00 00       	mov    $0x1,%eax
ffffffff802035ff:	90                   	nop
ffffffff80203600:	48 89 c2             	mov    %rax,%rdx
ffffffff80203603:	48 83 c0 01          	add    $0x1,%rax
ffffffff80203607:	41 80 7c 06 ff 00    	cmpb   $0x0,-0x1(%r14,%rax,1)
ffffffff8020360d:	75 f1                	jne    ffffffff80203600 <process_exec+0x380>
ffffffff8020360f:	89 d6                	mov    %edx,%esi
ffffffff80203611:	83 c2 01             	add    $0x1,%edx
ffffffff80203614:	b8 00 10 00 00       	mov    $0x1000,%eax
ffffffff80203619:	48 bd 00 10 00 00 00 	movabs $0x700000001000,%rbp
ffffffff80203620:	70 00 00 
ffffffff80203623:	48 63 d2             	movslq %edx,%rdx
ffffffff80203626:	48 29 d0             	sub    %rdx,%rax
ffffffff80203629:	48 29 d5             	sub    %rdx,%rbp
ffffffff8020362c:	4c 03 3d d5 4f 00 00 	add    0x4fd5(%rip),%r15        # ffffffff80208608 <hhdm_offset>
ffffffff80203633:	48 63 d6             	movslq %esi,%rdx
ffffffff80203636:	49 8d 4c 07 01       	lea    0x1(%r15,%rax,1),%rcx
ffffffff8020363b:	4c 01 f8             	add    %r15,%rax
ffffffff8020363e:	48 01 d1             	add    %rdx,%rcx
ffffffff80203641:	49 29 c6             	sub    %rax,%r14
ffffffff80203644:	66 66 2e 0f 1f 84 00 	data16 cs nopw 0x0(%rax,%rax,1)
ffffffff8020364b:	00 00 00 00 
ffffffff8020364f:	66 66 2e 0f 1f 84 00 	data16 cs nopw 0x0(%rax,%rax,1)
ffffffff80203656:	00 00 00 00 
ffffffff8020365a:	66 0f 1f 44 00 00    	nopw   0x0(%rax,%rax,1)
ffffffff80203660:	41 0f b6 14 06       	movzbl (%r14,%rax,1),%edx
ffffffff80203665:	48 83 c0 01          	add    $0x1,%rax
ffffffff80203669:	88 50 ff             	mov    %dl,-0x1(%rax)
ffffffff8020366c:	48 39 c1             	cmp    %rax,%rcx
ffffffff8020366f:	75 ef                	jne    ffffffff80203660 <process_exec+0x3e0>
ffffffff80203671:	45 31 f6             	xor    %r14d,%r14d
ffffffff80203674:	45 85 e4             	test   %r12d,%r12d
ffffffff80203677:	74 22                	je     ffffffff8020369b <process_exec+0x41b>
ffffffff80203679:	4d 89 c4             	mov    %r8,%r12
ffffffff8020367c:	0f 1f 40 00          	nopl   0x0(%rax)
ffffffff80203680:	48 89 df             	mov    %rbx,%rdi
ffffffff80203683:	49 83 c6 01          	add    $0x1,%r14
ffffffff80203687:	48 81 c3 00 10 00 00 	add    $0x1000,%rbx
ffffffff8020368e:	e8 2d e0 ff ff       	call   ffffffff802016c0 <pmm_free_page>
ffffffff80203693:	4d 39 f5             	cmp    %r14,%r13
ffffffff80203696:	75 e8                	jne    ffffffff80203680 <process_exec+0x400>
ffffffff80203698:	4d 89 e0             	mov    %r12,%r8
ffffffff8020369b:	48 c7 c7 d9 4b 20 80 	mov    $0xffffffff80204bd9,%rdi
ffffffff802036a2:	4c 89 44 24 10       	mov    %r8,0x10(%rsp)
ffffffff802036a7:	e8 74 d3 ff ff       	call   ffffffff80200a20 <vga_print>
ffffffff802036ac:	48 8b 7c 24 08       	mov    0x8(%rsp),%rdi
ffffffff802036b1:	e8 ea e0 ff ff       	call   ffffffff802017a0 <vmm_switch_pagemap>
ffffffff802036b6:	4c 8b 44 24 10       	mov    0x10(%rsp),%r8
ffffffff802036bb:	48 c7 c7 c0 98 20 80 	mov    $0xffffffff802098c0,%rdi
ffffffff802036c2:	49 8b 58 18          	mov    0x18(%r8),%rbx
ffffffff802036c6:	e8 c5 d5 ff ff       	call   ffffffff80200c90 <tss_set_kernel_stack>
ffffffff802036cb:	48 89 ea             	mov    %rbp,%rdx
ffffffff802036ce:	48 89 ee             	mov    %rbp,%rsi
ffffffff802036d1:	48 c7 05 c4 51 00 00 	movq   $0xffffffff802098c0,0x51c4(%rip)        # ffffffff802088a0 <current_kernel_stack>
ffffffff802036d8:	c0 98 20 80 
ffffffff802036dc:	48 83 c4 58          	add    $0x58,%rsp
ffffffff802036e0:	48 89 df             	mov    %rbx,%rdi
ffffffff802036e3:	5b                   	pop    %rbx
ffffffff802036e4:	5d                   	pop    %rbp
ffffffff802036e5:	41 5c                	pop    %r12
ffffffff802036e7:	41 5d                	pop    %r13
ffffffff802036e9:	41 5e                	pop    %r14
ffffffff802036eb:	41 5f                	pop    %r15
ffffffff802036ed:	e9 f2 01 00 00       	jmp    ffffffff802038e4 <asm_jump_usermode>
ffffffff802036f2:	48 bd ff 0f 00 00 00 	movabs $0x700000000fff,%rbp
ffffffff802036f9:	70 00 00 
ffffffff802036fc:	b8 ff 0f 00 00       	mov    $0xfff,%eax
ffffffff80203701:	31 f6                	xor    %esi,%esi
ffffffff80203703:	e9 24 ff ff ff       	jmp    ffffffff8020362c <process_exec+0x3ac>
ffffffff80203708:	48 c7 c7 c0 50 20 80 	mov    $0xffffffff802050c0,%rdi
ffffffff8020370f:	e8 0c d3 ff ff       	call   ffffffff80200a20 <vga_print>
ffffffff80203714:	45 85 ed             	test   %r13d,%r13d
ffffffff80203717:	0f 84 9b fd ff ff    	je     ffffffff802034b8 <process_exec+0x238>
ffffffff8020371d:	31 ed                	xor    %ebp,%ebp
ffffffff8020371f:	90                   	nop
ffffffff80203720:	48 89 df             	mov    %rbx,%rdi
ffffffff80203723:	48 83 c5 01          	add    $0x1,%rbp
ffffffff80203727:	48 81 c3 00 10 00 00 	add    $0x1000,%rbx
ffffffff8020372e:	e8 8d df ff ff       	call   ffffffff802016c0 <pmm_free_page>
ffffffff80203733:	49 39 ed             	cmp    %rbp,%r13
ffffffff80203736:	75 e8                	jne    ffffffff80203720 <process_exec+0x4a0>
ffffffff80203738:	e9 7b fd ff ff       	jmp    ffffffff802034b8 <process_exec+0x238>

ffffffff8020373d <gdt_flush>:
ffffffff8020373d:	0f 01 17             	lgdt   (%rdi)
ffffffff80203740:	66 b8 10 00          	mov    $0x10,%ax
ffffffff80203744:	8e d8                	mov    %eax,%ds
ffffffff80203746:	8e c0                	mov    %eax,%es
ffffffff80203748:	8e e0                	mov    %eax,%fs
ffffffff8020374a:	8e e8                	mov    %eax,%gs
ffffffff8020374c:	8e d0                	mov    %eax,%ss
ffffffff8020374e:	6a 08                	push   $0x8
ffffffff80203750:	48 8d 05 03 00 00 00 	lea    0x3(%rip),%rax        # ffffffff8020375a <.flush>
ffffffff80203757:	50                   	push   %rax
ffffffff80203758:	48 cb                	lretq

ffffffff8020375a <.flush>:
ffffffff8020375a:	c3                   	ret

ffffffff8020375b <tss_flush>:
ffffffff8020375b:	66 b8 28 00          	mov    $0x28,%ax
ffffffff8020375f:	0f 00 d8             	ltr    %eax
ffffffff80203762:	c3                   	ret

ffffffff80203763 <isr0>:
ffffffff80203763:	6a 00                	push   $0x0
ffffffff80203765:	6a 00                	push   $0x0
ffffffff80203767:	e9 c1 00 00 00       	jmp    ffffffff8020382d <isr_common_stub>

ffffffff8020376c <isr1>:
ffffffff8020376c:	6a 00                	push   $0x0
ffffffff8020376e:	6a 01                	push   $0x1
ffffffff80203770:	e9 b8 00 00 00       	jmp    ffffffff8020382d <isr_common_stub>

ffffffff80203775 <isr2>:
ffffffff80203775:	6a 00                	push   $0x0
ffffffff80203777:	6a 02                	push   $0x2
ffffffff80203779:	e9 af 00 00 00       	jmp    ffffffff8020382d <isr_common_stub>

ffffffff8020377e <isr3>:
ffffffff8020377e:	6a 00                	push   $0x0
ffffffff80203780:	6a 03                	push   $0x3
ffffffff80203782:	e9 a6 00 00 00       	jmp    ffffffff8020382d <isr_common_stub>

ffffffff80203787 <isr4>:
ffffffff80203787:	6a 00                	push   $0x0
ffffffff80203789:	6a 04                	push   $0x4
ffffffff8020378b:	e9 9d 00 00 00       	jmp    ffffffff8020382d <isr_common_stub>

ffffffff80203790 <isr5>:
ffffffff80203790:	6a 00                	push   $0x0
ffffffff80203792:	6a 05                	push   $0x5
ffffffff80203794:	e9 94 00 00 00       	jmp    ffffffff8020382d <isr_common_stub>

ffffffff80203799 <isr6>:
ffffffff80203799:	6a 00                	push   $0x0
ffffffff8020379b:	6a 06                	push   $0x6
ffffffff8020379d:	e9 8b 00 00 00       	jmp    ffffffff8020382d <isr_common_stub>

ffffffff802037a2 <isr7>:
ffffffff802037a2:	6a 00                	push   $0x0
ffffffff802037a4:	6a 07                	push   $0x7
ffffffff802037a6:	e9 82 00 00 00       	jmp    ffffffff8020382d <isr_common_stub>

ffffffff802037ab <isr8>:
ffffffff802037ab:	6a 08                	push   $0x8
ffffffff802037ad:	eb 7e                	jmp    ffffffff8020382d <isr_common_stub>

ffffffff802037af <isr9>:
ffffffff802037af:	6a 00                	push   $0x0
ffffffff802037b1:	6a 09                	push   $0x9
ffffffff802037b3:	eb 78                	jmp    ffffffff8020382d <isr_common_stub>

ffffffff802037b5 <isr10>:
ffffffff802037b5:	6a 0a                	push   $0xa
ffffffff802037b7:	eb 74                	jmp    ffffffff8020382d <isr_common_stub>

ffffffff802037b9 <isr11>:
ffffffff802037b9:	6a 0b                	push   $0xb
ffffffff802037bb:	eb 70                	jmp    ffffffff8020382d <isr_common_stub>

ffffffff802037bd <isr12>:
ffffffff802037bd:	6a 0c                	push   $0xc
ffffffff802037bf:	eb 6c                	jmp    ffffffff8020382d <isr_common_stub>

ffffffff802037c1 <isr13>:
ffffffff802037c1:	6a 0d                	push   $0xd
ffffffff802037c3:	eb 68                	jmp    ffffffff8020382d <isr_common_stub>

ffffffff802037c5 <isr14>:
ffffffff802037c5:	6a 0e                	push   $0xe
ffffffff802037c7:	eb 64                	jmp    ffffffff8020382d <isr_common_stub>

ffffffff802037c9 <isr15>:
ffffffff802037c9:	6a 00                	push   $0x0
ffffffff802037cb:	6a 0f                	push   $0xf
ffffffff802037cd:	eb 5e                	jmp    ffffffff8020382d <isr_common_stub>

ffffffff802037cf <isr16>:
ffffffff802037cf:	6a 00                	push   $0x0
ffffffff802037d1:	6a 10                	push   $0x10
ffffffff802037d3:	eb 58                	jmp    ffffffff8020382d <isr_common_stub>

ffffffff802037d5 <isr17>:
ffffffff802037d5:	6a 11                	push   $0x11
ffffffff802037d7:	eb 54                	jmp    ffffffff8020382d <isr_common_stub>

ffffffff802037d9 <isr18>:
ffffffff802037d9:	6a 00                	push   $0x0
ffffffff802037db:	6a 12                	push   $0x12
ffffffff802037dd:	eb 4e                	jmp    ffffffff8020382d <isr_common_stub>

ffffffff802037df <isr19>:
ffffffff802037df:	6a 00                	push   $0x0
ffffffff802037e1:	6a 13                	push   $0x13
ffffffff802037e3:	eb 48                	jmp    ffffffff8020382d <isr_common_stub>

ffffffff802037e5 <isr20>:
ffffffff802037e5:	6a 00                	push   $0x0
ffffffff802037e7:	6a 14                	push   $0x14
ffffffff802037e9:	eb 42                	jmp    ffffffff8020382d <isr_common_stub>

ffffffff802037eb <isr21>:
ffffffff802037eb:	6a 00                	push   $0x0
ffffffff802037ed:	6a 15                	push   $0x15
ffffffff802037ef:	eb 3c                	jmp    ffffffff8020382d <isr_common_stub>

ffffffff802037f1 <isr22>:
ffffffff802037f1:	6a 00                	push   $0x0
ffffffff802037f3:	6a 16                	push   $0x16
ffffffff802037f5:	eb 36                	jmp    ffffffff8020382d <isr_common_stub>

ffffffff802037f7 <isr23>:
ffffffff802037f7:	6a 00                	push   $0x0
ffffffff802037f9:	6a 17                	push   $0x17
ffffffff802037fb:	eb 30                	jmp    ffffffff8020382d <isr_common_stub>

ffffffff802037fd <isr24>:
ffffffff802037fd:	6a 00                	push   $0x0
ffffffff802037ff:	6a 18                	push   $0x18
ffffffff80203801:	eb 2a                	jmp    ffffffff8020382d <isr_common_stub>

ffffffff80203803 <isr25>:
ffffffff80203803:	6a 00                	push   $0x0
ffffffff80203805:	6a 19                	push   $0x19
ffffffff80203807:	eb 24                	jmp    ffffffff8020382d <isr_common_stub>

ffffffff80203809 <isr26>:
ffffffff80203809:	6a 00                	push   $0x0
ffffffff8020380b:	6a 1a                	push   $0x1a
ffffffff8020380d:	eb 1e                	jmp    ffffffff8020382d <isr_common_stub>

ffffffff8020380f <isr27>:
ffffffff8020380f:	6a 00                	push   $0x0
ffffffff80203811:	6a 1b                	push   $0x1b
ffffffff80203813:	eb 18                	jmp    ffffffff8020382d <isr_common_stub>

ffffffff80203815 <isr28>:
ffffffff80203815:	6a 00                	push   $0x0
ffffffff80203817:	6a 1c                	push   $0x1c
ffffffff80203819:	eb 12                	jmp    ffffffff8020382d <isr_common_stub>

ffffffff8020381b <isr29>:
ffffffff8020381b:	6a 00                	push   $0x0
ffffffff8020381d:	6a 1d                	push   $0x1d
ffffffff8020381f:	eb 0c                	jmp    ffffffff8020382d <isr_common_stub>

ffffffff80203821 <isr30>:
ffffffff80203821:	6a 00                	push   $0x0
ffffffff80203823:	6a 1e                	push   $0x1e
ffffffff80203825:	eb 06                	jmp    ffffffff8020382d <isr_common_stub>

ffffffff80203827 <isr31>:
ffffffff80203827:	6a 00                	push   $0x0
ffffffff80203829:	6a 1f                	push   $0x1f
ffffffff8020382b:	eb 00                	jmp    ffffffff8020382d <isr_common_stub>

ffffffff8020382d <isr_common_stub>:
ffffffff8020382d:	41 57                	push   %r15
ffffffff8020382f:	41 56                	push   %r14
ffffffff80203831:	41 55                	push   %r13
ffffffff80203833:	41 54                	push   %r12
ffffffff80203835:	41 53                	push   %r11
ffffffff80203837:	41 52                	push   %r10
ffffffff80203839:	41 51                	push   %r9
ffffffff8020383b:	41 50                	push   %r8
ffffffff8020383d:	55                   	push   %rbp
ffffffff8020383e:	57                   	push   %rdi
ffffffff8020383f:	56                   	push   %rsi
ffffffff80203840:	52                   	push   %rdx
ffffffff80203841:	51                   	push   %rcx
ffffffff80203842:	53                   	push   %rbx
ffffffff80203843:	50                   	push   %rax
ffffffff80203844:	66 8c d8             	mov    %ds,%ax
ffffffff80203847:	50                   	push   %rax
ffffffff80203848:	66 b8 10 00          	mov    $0x10,%ax
ffffffff8020384c:	8e d8                	mov    %eax,%ds
ffffffff8020384e:	8e c0                	mov    %eax,%es
ffffffff80203850:	8e e0                	mov    %eax,%fs
ffffffff80203852:	8e e8                	mov    %eax,%gs
ffffffff80203854:	48 89 e7             	mov    %rsp,%rdi
ffffffff80203857:	e8 b4 d4 ff ff       	call   ffffffff80200d10 <exception_handler>
ffffffff8020385c:	58                   	pop    %rax
ffffffff8020385d:	8e d8                	mov    %eax,%ds
ffffffff8020385f:	8e c0                	mov    %eax,%es
ffffffff80203861:	8e e0                	mov    %eax,%fs
ffffffff80203863:	8e e8                	mov    %eax,%gs
ffffffff80203865:	58                   	pop    %rax
ffffffff80203866:	5b                   	pop    %rbx
ffffffff80203867:	59                   	pop    %rcx
ffffffff80203868:	5a                   	pop    %rdx
ffffffff80203869:	5e                   	pop    %rsi
ffffffff8020386a:	5f                   	pop    %rdi
ffffffff8020386b:	5d                   	pop    %rbp
ffffffff8020386c:	41 58                	pop    %r8
ffffffff8020386e:	41 59                	pop    %r9
ffffffff80203870:	41 5a                	pop    %r10
ffffffff80203872:	41 5b                	pop    %r11
ffffffff80203874:	41 5c                	pop    %r12
ffffffff80203876:	41 5d                	pop    %r13
ffffffff80203878:	41 5e                	pop    %r14
ffffffff8020387a:	41 5f                	pop    %r15
ffffffff8020387c:	48 83 c4 10          	add    $0x10,%rsp
ffffffff80203880:	48 cf                	iretq

ffffffff80203882 <isr_keyboard>:
ffffffff80203882:	50                   	push   %rax
ffffffff80203883:	51                   	push   %rcx
ffffffff80203884:	52                   	push   %rdx
ffffffff80203885:	41 50                	push   %r8
ffffffff80203887:	41 51                	push   %r9
ffffffff80203889:	41 52                	push   %r10
ffffffff8020388b:	41 53                	push   %r11
ffffffff8020388d:	fc                   	cld
ffffffff8020388e:	e8 fd d6 ff ff       	call   ffffffff80200f90 <keyboard_handler>
ffffffff80203893:	41 5b                	pop    %r11
ffffffff80203895:	41 5a                	pop    %r10
ffffffff80203897:	41 59                	pop    %r9
ffffffff80203899:	41 58                	pop    %r8
ffffffff8020389b:	5a                   	pop    %rdx
ffffffff8020389c:	59                   	pop    %rcx
ffffffff8020389d:	58                   	pop    %rax
ffffffff8020389e:	48 cf                	iretq

ffffffff802038a0 <syscall_entry>:
ffffffff802038a0:	48 89 25 01 50 00 00 	mov    %rsp,0x5001(%rip)        # ffffffff802088a8 <current_user_rsp>
ffffffff802038a7:	48 8b 25 f2 4f 00 00 	mov    0x4ff2(%rip),%rsp        # ffffffff802088a0 <current_kernel_stack>
ffffffff802038ae:	51                   	push   %rcx
ffffffff802038af:	41 53                	push   %r11
ffffffff802038b1:	41 52                	push   %r10
ffffffff802038b3:	52                   	push   %rdx
ffffffff802038b4:	56                   	push   %rsi
ffffffff802038b5:	57                   	push   %rdi
ffffffff802038b6:	50                   	push   %rax
ffffffff802038b7:	48 89 c7             	mov    %rax,%rdi
ffffffff802038ba:	48 8b 74 24 08       	mov    0x8(%rsp),%rsi
ffffffff802038bf:	48 8b 54 24 10       	mov    0x10(%rsp),%rdx
ffffffff802038c4:	48 8b 4c 24 18       	mov    0x18(%rsp),%rcx
ffffffff802038c9:	e8 92 f8 ff ff       	call   ffffffff80203160 <syscall_handler_c>
ffffffff802038ce:	48 83 c4 08          	add    $0x8,%rsp
ffffffff802038d2:	5f                   	pop    %rdi
ffffffff802038d3:	5e                   	pop    %rsi
ffffffff802038d4:	5a                   	pop    %rdx
ffffffff802038d5:	41 5a                	pop    %r10
ffffffff802038d7:	41 5b                	pop    %r11
ffffffff802038d9:	59                   	pop    %rcx
ffffffff802038da:	48 8b 25 c7 4f 00 00 	mov    0x4fc7(%rip),%rsp        # ffffffff802088a8 <current_user_rsp>
ffffffff802038e1:	48 0f 07             	sysretq

ffffffff802038e4 <asm_jump_usermode>:
ffffffff802038e4:	55                   	push   %rbp
ffffffff802038e5:	53                   	push   %rbx
ffffffff802038e6:	41 54                	push   %r12
ffffffff802038e8:	41 55                	push   %r13
ffffffff802038ea:	41 56                	push   %r14
ffffffff802038ec:	41 57                	push   %r15
ffffffff802038ee:	48 89 25 cb 3a 00 00 	mov    %rsp,0x3acb(%rip)        # ffffffff802073c0 <kernel_saved_rsp>
ffffffff802038f5:	48 89 f9             	mov    %rdi,%rcx
ffffffff802038f8:	48 89 f4             	mov    %rsi,%rsp
ffffffff802038fb:	48 89 d7             	mov    %rdx,%rdi
ffffffff802038fe:	49 c7 c3 02 02 00 00 	mov    $0x202,%r11
ffffffff80203905:	48 0f 07             	sysretq

ffffffff80203908 <asm_return_to_kernel>:
ffffffff80203908:	48 8b 25 b1 3a 00 00 	mov    0x3ab1(%rip),%rsp        # ffffffff802073c0 <kernel_saved_rsp>
ffffffff8020390f:	41 5f                	pop    %r15
ffffffff80203911:	41 5e                	pop    %r14
ffffffff80203913:	41 5d                	pop    %r13
ffffffff80203915:	41 5c                	pop    %r12
ffffffff80203917:	5b                   	pop    %rbx
ffffffff80203918:	5d                   	pop    %rbp
ffffffff80203919:	fb                   	sti
ffffffff8020391a:	c3                   	ret
